
ctarget:     file format elf64-x86-64


Disassembly of section .init:

0000000000400cb0 <_init>:
  400cb0:	48 83 ec 08          	sub    $0x8,%rsp
  400cb4:	48 8b 05 3d 33 20 00 	mov    0x20333d(%rip),%rax        # 603ff8 <_DYNAMIC+0x1d0>
  400cbb:	48 85 c0             	test   %rax,%rax
  400cbe:	74 05                	je     400cc5 <_init+0x15>
  400cc0:	e8 2b 01 00 00       	callq  400df0 <__gmon_start__@plt>
  400cc5:	48 83 c4 08          	add    $0x8,%rsp
  400cc9:	c3                   	retq   

Disassembly of section .plt:

0000000000400cd0 <strcasecmp@plt-0x10>:
  400cd0:	ff 35 32 33 20 00    	pushq  0x203332(%rip)        # 604008 <_GLOBAL_OFFSET_TABLE_+0x8>
  400cd6:	ff 25 34 33 20 00    	jmpq   *0x203334(%rip)        # 604010 <_GLOBAL_OFFSET_TABLE_+0x10>
  400cdc:	0f 1f 40 00          	nopl   0x0(%rax)

0000000000400ce0 <strcasecmp@plt>:
  400ce0:	ff 25 32 33 20 00    	jmpq   *0x203332(%rip)        # 604018 <_GLOBAL_OFFSET_TABLE_+0x18>
  400ce6:	68 00 00 00 00       	pushq  $0x0
  400ceb:	e9 e0 ff ff ff       	jmpq   400cd0 <_init+0x20>

0000000000400cf0 <__errno_location@plt>:
  400cf0:	ff 25 2a 33 20 00    	jmpq   *0x20332a(%rip)        # 604020 <_GLOBAL_OFFSET_TABLE_+0x20>
  400cf6:	68 01 00 00 00       	pushq  $0x1
  400cfb:	e9 d0 ff ff ff       	jmpq   400cd0 <_init+0x20>

0000000000400d00 <srandom@plt>:
  400d00:	ff 25 22 33 20 00    	jmpq   *0x203322(%rip)        # 604028 <_GLOBAL_OFFSET_TABLE_+0x28>
  400d06:	68 02 00 00 00       	pushq  $0x2
  400d0b:	e9 c0 ff ff ff       	jmpq   400cd0 <_init+0x20>

0000000000400d10 <strncmp@plt>:
  400d10:	ff 25 1a 33 20 00    	jmpq   *0x20331a(%rip)        # 604030 <_GLOBAL_OFFSET_TABLE_+0x30>
  400d16:	68 03 00 00 00       	pushq  $0x3
  400d1b:	e9 b0 ff ff ff       	jmpq   400cd0 <_init+0x20>

0000000000400d20 <strcpy@plt>:
  400d20:	ff 25 12 33 20 00    	jmpq   *0x203312(%rip)        # 604038 <_GLOBAL_OFFSET_TABLE_+0x38>
  400d26:	68 04 00 00 00       	pushq  $0x4
  400d2b:	e9 a0 ff ff ff       	jmpq   400cd0 <_init+0x20>

0000000000400d30 <puts@plt>:
  400d30:	ff 25 0a 33 20 00    	jmpq   *0x20330a(%rip)        # 604040 <_GLOBAL_OFFSET_TABLE_+0x40>
  400d36:	68 05 00 00 00       	pushq  $0x5
  400d3b:	e9 90 ff ff ff       	jmpq   400cd0 <_init+0x20>

0000000000400d40 <write@plt>:
  400d40:	ff 25 02 33 20 00    	jmpq   *0x203302(%rip)        # 604048 <_GLOBAL_OFFSET_TABLE_+0x48>
  400d46:	68 06 00 00 00       	pushq  $0x6
  400d4b:	e9 80 ff ff ff       	jmpq   400cd0 <_init+0x20>

0000000000400d50 <mmap@plt>:
  400d50:	ff 25 fa 32 20 00    	jmpq   *0x2032fa(%rip)        # 604050 <_GLOBAL_OFFSET_TABLE_+0x50>
  400d56:	68 07 00 00 00       	pushq  $0x7
  400d5b:	e9 70 ff ff ff       	jmpq   400cd0 <_init+0x20>

0000000000400d60 <printf@plt>:
  400d60:	ff 25 f2 32 20 00    	jmpq   *0x2032f2(%rip)        # 604058 <_GLOBAL_OFFSET_TABLE_+0x58>
  400d66:	68 08 00 00 00       	pushq  $0x8
  400d6b:	e9 60 ff ff ff       	jmpq   400cd0 <_init+0x20>

0000000000400d70 <memset@plt>:
  400d70:	ff 25 ea 32 20 00    	jmpq   *0x2032ea(%rip)        # 604060 <_GLOBAL_OFFSET_TABLE_+0x60>
  400d76:	68 09 00 00 00       	pushq  $0x9
  400d7b:	e9 50 ff ff ff       	jmpq   400cd0 <_init+0x20>

0000000000400d80 <alarm@plt>:
  400d80:	ff 25 e2 32 20 00    	jmpq   *0x2032e2(%rip)        # 604068 <_GLOBAL_OFFSET_TABLE_+0x68>
  400d86:	68 0a 00 00 00       	pushq  $0xa
  400d8b:	e9 40 ff ff ff       	jmpq   400cd0 <_init+0x20>

0000000000400d90 <close@plt>:
  400d90:	ff 25 da 32 20 00    	jmpq   *0x2032da(%rip)        # 604070 <_GLOBAL_OFFSET_TABLE_+0x70>
  400d96:	68 0b 00 00 00       	pushq  $0xb
  400d9b:	e9 30 ff ff ff       	jmpq   400cd0 <_init+0x20>

0000000000400da0 <read@plt>:
  400da0:	ff 25 d2 32 20 00    	jmpq   *0x2032d2(%rip)        # 604078 <_GLOBAL_OFFSET_TABLE_+0x78>
  400da6:	68 0c 00 00 00       	pushq  $0xc
  400dab:	e9 20 ff ff ff       	jmpq   400cd0 <_init+0x20>

0000000000400db0 <__libc_start_main@plt>:
  400db0:	ff 25 ca 32 20 00    	jmpq   *0x2032ca(%rip)        # 604080 <_GLOBAL_OFFSET_TABLE_+0x80>
  400db6:	68 0d 00 00 00       	pushq  $0xd
  400dbb:	e9 10 ff ff ff       	jmpq   400cd0 <_init+0x20>

0000000000400dc0 <signal@plt>:
  400dc0:	ff 25 c2 32 20 00    	jmpq   *0x2032c2(%rip)        # 604088 <_GLOBAL_OFFSET_TABLE_+0x88>
  400dc6:	68 0e 00 00 00       	pushq  $0xe
  400dcb:	e9 00 ff ff ff       	jmpq   400cd0 <_init+0x20>

0000000000400dd0 <gethostbyname@plt>:
  400dd0:	ff 25 ba 32 20 00    	jmpq   *0x2032ba(%rip)        # 604090 <_GLOBAL_OFFSET_TABLE_+0x90>
  400dd6:	68 0f 00 00 00       	pushq  $0xf
  400ddb:	e9 f0 fe ff ff       	jmpq   400cd0 <_init+0x20>

0000000000400de0 <fprintf@plt>:
  400de0:	ff 25 b2 32 20 00    	jmpq   *0x2032b2(%rip)        # 604098 <_GLOBAL_OFFSET_TABLE_+0x98>
  400de6:	68 10 00 00 00       	pushq  $0x10
  400deb:	e9 e0 fe ff ff       	jmpq   400cd0 <_init+0x20>

0000000000400df0 <__gmon_start__@plt>:
  400df0:	ff 25 aa 32 20 00    	jmpq   *0x2032aa(%rip)        # 6040a0 <_GLOBAL_OFFSET_TABLE_+0xa0>
  400df6:	68 11 00 00 00       	pushq  $0x11
  400dfb:	e9 d0 fe ff ff       	jmpq   400cd0 <_init+0x20>

0000000000400e00 <strtol@plt>:
  400e00:	ff 25 a2 32 20 00    	jmpq   *0x2032a2(%rip)        # 6040a8 <_GLOBAL_OFFSET_TABLE_+0xa8>
  400e06:	68 12 00 00 00       	pushq  $0x12
  400e0b:	e9 c0 fe ff ff       	jmpq   400cd0 <_init+0x20>

0000000000400e10 <memcpy@plt>:
  400e10:	ff 25 9a 32 20 00    	jmpq   *0x20329a(%rip)        # 6040b0 <_GLOBAL_OFFSET_TABLE_+0xb0>
  400e16:	68 13 00 00 00       	pushq  $0x13
  400e1b:	e9 b0 fe ff ff       	jmpq   400cd0 <_init+0x20>

0000000000400e20 <time@plt>:
  400e20:	ff 25 92 32 20 00    	jmpq   *0x203292(%rip)        # 6040b8 <_GLOBAL_OFFSET_TABLE_+0xb8>
  400e26:	68 14 00 00 00       	pushq  $0x14
  400e2b:	e9 a0 fe ff ff       	jmpq   400cd0 <_init+0x20>

0000000000400e30 <random@plt>:
  400e30:	ff 25 8a 32 20 00    	jmpq   *0x20328a(%rip)        # 6040c0 <_GLOBAL_OFFSET_TABLE_+0xc0>
  400e36:	68 15 00 00 00       	pushq  $0x15
  400e3b:	e9 90 fe ff ff       	jmpq   400cd0 <_init+0x20>

0000000000400e40 <_IO_getc@plt>:
  400e40:	ff 25 82 32 20 00    	jmpq   *0x203282(%rip)        # 6040c8 <_GLOBAL_OFFSET_TABLE_+0xc8>
  400e46:	68 16 00 00 00       	pushq  $0x16
  400e4b:	e9 80 fe ff ff       	jmpq   400cd0 <_init+0x20>

0000000000400e50 <__isoc99_sscanf@plt>:
  400e50:	ff 25 7a 32 20 00    	jmpq   *0x20327a(%rip)        # 6040d0 <_GLOBAL_OFFSET_TABLE_+0xd0>
  400e56:	68 17 00 00 00       	pushq  $0x17
  400e5b:	e9 70 fe ff ff       	jmpq   400cd0 <_init+0x20>

0000000000400e60 <munmap@plt>:
  400e60:	ff 25 72 32 20 00    	jmpq   *0x203272(%rip)        # 6040d8 <_GLOBAL_OFFSET_TABLE_+0xd8>
  400e66:	68 18 00 00 00       	pushq  $0x18
  400e6b:	e9 60 fe ff ff       	jmpq   400cd0 <_init+0x20>

0000000000400e70 <bcopy@plt>:
  400e70:	ff 25 6a 32 20 00    	jmpq   *0x20326a(%rip)        # 6040e0 <_GLOBAL_OFFSET_TABLE_+0xe0>
  400e76:	68 19 00 00 00       	pushq  $0x19
  400e7b:	e9 50 fe ff ff       	jmpq   400cd0 <_init+0x20>

0000000000400e80 <fopen@plt>:
  400e80:	ff 25 62 32 20 00    	jmpq   *0x203262(%rip)        # 6040e8 <_GLOBAL_OFFSET_TABLE_+0xe8>
  400e86:	68 1a 00 00 00       	pushq  $0x1a
  400e8b:	e9 40 fe ff ff       	jmpq   400cd0 <_init+0x20>

0000000000400e90 <getopt@plt>:
  400e90:	ff 25 5a 32 20 00    	jmpq   *0x20325a(%rip)        # 6040f0 <_GLOBAL_OFFSET_TABLE_+0xf0>
  400e96:	68 1b 00 00 00       	pushq  $0x1b
  400e9b:	e9 30 fe ff ff       	jmpq   400cd0 <_init+0x20>

0000000000400ea0 <strtoul@plt>:
  400ea0:	ff 25 52 32 20 00    	jmpq   *0x203252(%rip)        # 6040f8 <_GLOBAL_OFFSET_TABLE_+0xf8>
  400ea6:	68 1c 00 00 00       	pushq  $0x1c
  400eab:	e9 20 fe ff ff       	jmpq   400cd0 <_init+0x20>

0000000000400eb0 <gethostname@plt>:
  400eb0:	ff 25 4a 32 20 00    	jmpq   *0x20324a(%rip)        # 604100 <_GLOBAL_OFFSET_TABLE_+0x100>
  400eb6:	68 1d 00 00 00       	pushq  $0x1d
  400ebb:	e9 10 fe ff ff       	jmpq   400cd0 <_init+0x20>

0000000000400ec0 <sprintf@plt>:
  400ec0:	ff 25 42 32 20 00    	jmpq   *0x203242(%rip)        # 604108 <_GLOBAL_OFFSET_TABLE_+0x108>
  400ec6:	68 1e 00 00 00       	pushq  $0x1e
  400ecb:	e9 00 fe ff ff       	jmpq   400cd0 <_init+0x20>

0000000000400ed0 <exit@plt>:
  400ed0:	ff 25 3a 32 20 00    	jmpq   *0x20323a(%rip)        # 604110 <_GLOBAL_OFFSET_TABLE_+0x110>
  400ed6:	68 1f 00 00 00       	pushq  $0x1f
  400edb:	e9 f0 fd ff ff       	jmpq   400cd0 <_init+0x20>

0000000000400ee0 <connect@plt>:
  400ee0:	ff 25 32 32 20 00    	jmpq   *0x203232(%rip)        # 604118 <_GLOBAL_OFFSET_TABLE_+0x118>
  400ee6:	68 20 00 00 00       	pushq  $0x20
  400eeb:	e9 e0 fd ff ff       	jmpq   400cd0 <_init+0x20>

0000000000400ef0 <socket@plt>:
  400ef0:	ff 25 2a 32 20 00    	jmpq   *0x20322a(%rip)        # 604120 <_GLOBAL_OFFSET_TABLE_+0x120>
  400ef6:	68 21 00 00 00       	pushq  $0x21
  400efb:	e9 d0 fd ff ff       	jmpq   400cd0 <_init+0x20>

Disassembly of section .text:

0000000000400f00 <_start>:
  400f00:	31 ed                	xor    %ebp,%ebp
  400f02:	49 89 d1             	mov    %rdx,%r9
  400f05:	5e                   	pop    %rsi
  400f06:	48 89 e2             	mov    %rsp,%rdx
  400f09:	48 83 e4 f0          	and    $0xfffffffffffffff0,%rsp
  400f0d:	50                   	push   %rax
  400f0e:	54                   	push   %rsp
  400f0f:	49 c7 c0 00 2c 40 00 	mov    $0x402c00,%r8
  400f16:	48 c7 c1 90 2b 40 00 	mov    $0x402b90,%rcx
  400f1d:	48 c7 c7 a0 11 40 00 	mov    $0x4011a0,%rdi
  400f24:	e8 87 fe ff ff       	callq  400db0 <__libc_start_main@plt>
  400f29:	f4                   	hlt    
  400f2a:	66 0f 1f 44 00 00    	nopw   0x0(%rax,%rax,1)

0000000000400f30 <deregister_tm_clones>:
  400f30:	55                   	push   %rbp
  400f31:	b8 b0 44 60 00       	mov    $0x6044b0,%eax
  400f36:	48 3d b0 44 60 00    	cmp    $0x6044b0,%rax
  400f3c:	48 89 e5             	mov    %rsp,%rbp
  400f3f:	74 17                	je     400f58 <deregister_tm_clones+0x28>
  400f41:	b8 00 00 00 00       	mov    $0x0,%eax
  400f46:	48 85 c0             	test   %rax,%rax
  400f49:	74 0d                	je     400f58 <deregister_tm_clones+0x28>
  400f4b:	5d                   	pop    %rbp
  400f4c:	bf b0 44 60 00       	mov    $0x6044b0,%edi
  400f51:	ff e0                	jmpq   *%rax
  400f53:	0f 1f 44 00 00       	nopl   0x0(%rax,%rax,1)
  400f58:	5d                   	pop    %rbp
  400f59:	c3                   	retq   
  400f5a:	66 0f 1f 44 00 00    	nopw   0x0(%rax,%rax,1)

0000000000400f60 <register_tm_clones>:
  400f60:	be b0 44 60 00       	mov    $0x6044b0,%esi
  400f65:	55                   	push   %rbp
  400f66:	48 81 ee b0 44 60 00 	sub    $0x6044b0,%rsi
  400f6d:	48 89 e5             	mov    %rsp,%rbp
  400f70:	48 c1 fe 03          	sar    $0x3,%rsi
  400f74:	48 89 f0             	mov    %rsi,%rax
  400f77:	48 c1 e8 3f          	shr    $0x3f,%rax
  400f7b:	48 01 c6             	add    %rax,%rsi
  400f7e:	48 d1 fe             	sar    %rsi
  400f81:	74 15                	je     400f98 <register_tm_clones+0x38>
  400f83:	b8 00 00 00 00       	mov    $0x0,%eax
  400f88:	48 85 c0             	test   %rax,%rax
  400f8b:	74 0b                	je     400f98 <register_tm_clones+0x38>
  400f8d:	5d                   	pop    %rbp
  400f8e:	bf b0 44 60 00       	mov    $0x6044b0,%edi
  400f93:	ff e0                	jmpq   *%rax
  400f95:	0f 1f 00             	nopl   (%rax)
  400f98:	5d                   	pop    %rbp
  400f99:	c3                   	retq   
  400f9a:	66 0f 1f 44 00 00    	nopw   0x0(%rax,%rax,1)

0000000000400fa0 <__do_global_dtors_aux>:
  400fa0:	80 3d 31 35 20 00 00 	cmpb   $0x0,0x203531(%rip)        # 6044d8 <completed.6940>
  400fa7:	75 17                	jne    400fc0 <__do_global_dtors_aux+0x20>
  400fa9:	55                   	push   %rbp
  400faa:	48 89 e5             	mov    %rsp,%rbp
  400fad:	e8 7e ff ff ff       	callq  400f30 <deregister_tm_clones>
  400fb2:	c6 05 1f 35 20 00 01 	movb   $0x1,0x20351f(%rip)        # 6044d8 <completed.6940>
  400fb9:	5d                   	pop    %rbp
  400fba:	c3                   	retq   
  400fbb:	0f 1f 44 00 00       	nopl   0x0(%rax,%rax,1)
  400fc0:	f3 c3                	repz retq 
  400fc2:	0f 1f 40 00          	nopl   0x0(%rax)
  400fc6:	66 2e 0f 1f 84 00 00 	nopw   %cs:0x0(%rax,%rax,1)
  400fcd:	00 00 00 

0000000000400fd0 <frame_dummy>:
  400fd0:	55                   	push   %rbp
  400fd1:	48 89 e5             	mov    %rsp,%rbp
  400fd4:	5d                   	pop    %rbp
  400fd5:	eb 89                	jmp    400f60 <register_tm_clones>

0000000000400fd7 <usage>:
  400fd7:	48 83 ec 08          	sub    $0x8,%rsp
  400fdb:	48 89 fe             	mov    %rdi,%rsi
  400fde:	83 3d 23 35 20 00 00 	cmpl   $0x0,0x203523(%rip)        # 604508 <is_checker>
  400fe5:	74 41                	je     401028 <usage+0x51>
  400fe7:	bf 18 2c 40 00       	mov    $0x402c18,%edi
  400fec:	b8 00 00 00 00       	mov    $0x0,%eax
  400ff1:	e8 6a fd ff ff       	callq  400d60 <printf@plt>
  400ff6:	bf 50 2c 40 00       	mov    $0x402c50,%edi
  400ffb:	e8 30 fd ff ff       	callq  400d30 <puts@plt>
  401000:	bf c8 2d 40 00       	mov    $0x402dc8,%edi
  401005:	e8 26 fd ff ff       	callq  400d30 <puts@plt>
  40100a:	bf 78 2c 40 00       	mov    $0x402c78,%edi
  40100f:	e8 1c fd ff ff       	callq  400d30 <puts@plt>
  401014:	bf e2 2d 40 00       	mov    $0x402de2,%edi
  401019:	e8 12 fd ff ff       	callq  400d30 <puts@plt>
  40101e:	bf 00 00 00 00       	mov    $0x0,%edi
  401023:	e8 a8 fe ff ff       	callq  400ed0 <exit@plt>
  401028:	bf fe 2d 40 00       	mov    $0x402dfe,%edi
  40102d:	b8 00 00 00 00       	mov    $0x0,%eax
  401032:	e8 29 fd ff ff       	callq  400d60 <printf@plt>
  401037:	bf a0 2c 40 00       	mov    $0x402ca0,%edi
  40103c:	e8 ef fc ff ff       	callq  400d30 <puts@plt>
  401041:	bf c8 2c 40 00       	mov    $0x402cc8,%edi
  401046:	e8 e5 fc ff ff       	callq  400d30 <puts@plt>
  40104b:	bf 1c 2e 40 00       	mov    $0x402e1c,%edi
  401050:	e8 db fc ff ff       	callq  400d30 <puts@plt>
  401055:	eb c7                	jmp    40101e <usage+0x47>

0000000000401057 <initialize_target>:
  401057:	55                   	push   %rbp
  401058:	53                   	push   %rbx
  401059:	48 81 ec 08 21 00 00 	sub    $0x2108,%rsp
  401060:	89 f5                	mov    %esi,%ebp
  401062:	89 3d 90 34 20 00    	mov    %edi,0x203490(%rip)        # 6044f8 <check_level>
  401068:	8b 3d fa 30 20 00    	mov    0x2030fa(%rip),%edi        # 604168 <target_id>
  40106e:	e8 fc 1a 00 00       	callq  402b6f <gencookie>
  401073:	89 05 8b 34 20 00    	mov    %eax,0x20348b(%rip)        # 604504 <cookie>
  401079:	89 c7                	mov    %eax,%edi
  40107b:	e8 ef 1a 00 00       	callq  402b6f <gencookie>
  401080:	89 05 7a 34 20 00    	mov    %eax,0x20347a(%rip)        # 604500 <authkey>
  401086:	8b 05 dc 30 20 00    	mov    0x2030dc(%rip),%eax        # 604168 <target_id>
  40108c:	8d 78 01             	lea    0x1(%rax),%edi
  40108f:	e8 6c fc ff ff       	callq  400d00 <srandom@plt>
  401094:	e8 97 fd ff ff       	callq  400e30 <random@plt>
  401099:	89 c7                	mov    %eax,%edi
  40109b:	e8 b8 02 00 00       	callq  401358 <scramble>
  4010a0:	89 c3                	mov    %eax,%ebx
  4010a2:	85 ed                	test   %ebp,%ebp
  4010a4:	75 3d                	jne    4010e3 <initialize_target+0x8c>
  4010a6:	b8 00 00 00 00       	mov    $0x0,%eax
  4010ab:	01 d8                	add    %ebx,%eax
  4010ad:	0f b7 c0             	movzwl %ax,%eax
  4010b0:	8d 04 c5 00 01 00 00 	lea    0x100(,%rax,8),%eax
  4010b7:	89 c0                	mov    %eax,%eax
  4010b9:	48 89 05 e0 33 20 00 	mov    %rax,0x2033e0(%rip)        # 6044a0 <buf_offset>
  4010c0:	c6 05 61 40 20 00 63 	movb   $0x63,0x204061(%rip)        # 605128 <target_prefix>
  4010c7:	83 3d da 33 20 00 00 	cmpl   $0x0,0x2033da(%rip)        # 6044a8 <notify>
  4010ce:	74 09                	je     4010d9 <initialize_target+0x82>
  4010d0:	83 3d 31 34 20 00 00 	cmpl   $0x0,0x203431(%rip)        # 604508 <is_checker>
  4010d7:	74 22                	je     4010fb <initialize_target+0xa4>
  4010d9:	48 81 c4 08 21 00 00 	add    $0x2108,%rsp
  4010e0:	5b                   	pop    %rbx
  4010e1:	5d                   	pop    %rbp
  4010e2:	c3                   	retq   
  4010e3:	bf 00 00 00 00       	mov    $0x0,%edi
  4010e8:	e8 33 fd ff ff       	callq  400e20 <time@plt>
  4010ed:	89 c7                	mov    %eax,%edi
  4010ef:	e8 0c fc ff ff       	callq  400d00 <srandom@plt>
  4010f4:	e8 37 fd ff ff       	callq  400e30 <random@plt>
  4010f9:	eb b0                	jmp    4010ab <initialize_target+0x54>
  4010fb:	be 00 01 00 00       	mov    $0x100,%esi
  401100:	48 89 e7             	mov    %rsp,%rdi
  401103:	e8 a8 fd ff ff       	callq  400eb0 <gethostname@plt>
  401108:	89 c5                	mov    %eax,%ebp
  40110a:	85 c0                	test   %eax,%eax
  40110c:	75 23                	jne    401131 <initialize_target+0xda>
  40110e:	89 c3                	mov    %eax,%ebx
  401110:	48 63 c3             	movslq %ebx,%rax
  401113:	48 8b 3c c5 80 41 60 	mov    0x604180(,%rax,8),%rdi
  40111a:	00 
  40111b:	48 85 ff             	test   %rdi,%rdi
  40111e:	74 2a                	je     40114a <initialize_target+0xf3>
  401120:	48 89 e6             	mov    %rsp,%rsi
  401123:	e8 b8 fb ff ff       	callq  400ce0 <strcasecmp@plt>
  401128:	85 c0                	test   %eax,%eax
  40112a:	74 19                	je     401145 <initialize_target+0xee>
  40112c:	83 c3 01             	add    $0x1,%ebx
  40112f:	eb df                	jmp    401110 <initialize_target+0xb9>
  401131:	bf f8 2c 40 00       	mov    $0x402cf8,%edi
  401136:	e8 f5 fb ff ff       	callq  400d30 <puts@plt>
  40113b:	bf 08 00 00 00       	mov    $0x8,%edi
  401140:	e8 8b fd ff ff       	callq  400ed0 <exit@plt>
  401145:	bd 01 00 00 00       	mov    $0x1,%ebp
  40114a:	85 ed                	test   %ebp,%ebp
  40114c:	74 36                	je     401184 <initialize_target+0x12d>
  40114e:	48 8d bc 24 00 01 00 	lea    0x100(%rsp),%rdi
  401155:	00 
  401156:	e8 a7 17 00 00       	callq  402902 <init_driver>
  40115b:	85 c0                	test   %eax,%eax
  40115d:	0f 89 76 ff ff ff    	jns    4010d9 <initialize_target+0x82>
  401163:	48 8d b4 24 00 01 00 	lea    0x100(%rsp),%rsi
  40116a:	00 
  40116b:	bf 70 2d 40 00       	mov    $0x402d70,%edi
  401170:	b8 00 00 00 00       	mov    $0x0,%eax
  401175:	e8 e6 fb ff ff       	callq  400d60 <printf@plt>
  40117a:	bf 08 00 00 00       	mov    $0x8,%edi
  40117f:	e8 4c fd ff ff       	callq  400ed0 <exit@plt>
  401184:	48 89 e6             	mov    %rsp,%rsi
  401187:	bf 30 2d 40 00       	mov    $0x402d30,%edi
  40118c:	b8 00 00 00 00       	mov    $0x0,%eax
  401191:	e8 ca fb ff ff       	callq  400d60 <printf@plt>
  401196:	bf 08 00 00 00       	mov    $0x8,%edi
  40119b:	e8 30 fd ff ff       	callq  400ed0 <exit@plt>

00000000004011a0 <main>:
  4011a0:	41 56                	push   %r14
  4011a2:	41 55                	push   %r13
  4011a4:	41 54                	push   %r12
  4011a6:	55                   	push   %rbp
  4011a7:	53                   	push   %rbx
  4011a8:	41 89 fc             	mov    %edi,%r12d
  4011ab:	48 89 f3             	mov    %rsi,%rbx
  4011ae:	be ea 1c 40 00       	mov    $0x401cea,%esi
  4011b3:	bf 0b 00 00 00       	mov    $0xb,%edi
  4011b8:	e8 03 fc ff ff       	callq  400dc0 <signal@plt>
  4011bd:	be 9c 1c 40 00       	mov    $0x401c9c,%esi
  4011c2:	bf 07 00 00 00       	mov    $0x7,%edi
  4011c7:	e8 f4 fb ff ff       	callq  400dc0 <signal@plt>
  4011cc:	be 38 1d 40 00       	mov    $0x401d38,%esi
  4011d1:	bf 04 00 00 00       	mov    $0x4,%edi
  4011d6:	e8 e5 fb ff ff       	callq  400dc0 <signal@plt>
  4011db:	83 3d 26 33 20 00 00 	cmpl   $0x0,0x203326(%rip)        # 604508 <is_checker>
  4011e2:	75 24                	jne    401208 <main+0x68>
  4011e4:	bd 35 2e 40 00       	mov    $0x402e35,%ebp
  4011e9:	48 8b 05 d0 32 20 00 	mov    0x2032d0(%rip),%rax        # 6044c0 <stdin@@GLIBC_2.2.5>
  4011f0:	48 89 05 f9 32 20 00 	mov    %rax,0x2032f9(%rip)        # 6044f0 <infile>
  4011f7:	41 bd 00 00 00 00    	mov    $0x0,%r13d
  4011fd:	41 be 00 00 00 00    	mov    $0x0,%r14d
  401203:	e9 80 00 00 00       	jmpq   401288 <main+0xe8>
  401208:	be 86 1d 40 00       	mov    $0x401d86,%esi
  40120d:	bf 0e 00 00 00       	mov    $0xe,%edi
  401212:	e8 a9 fb ff ff       	callq  400dc0 <signal@plt>
  401217:	bf 05 00 00 00       	mov    $0x5,%edi
  40121c:	e8 5f fb ff ff       	callq  400d80 <alarm@plt>
  401221:	bd 3a 2e 40 00       	mov    $0x402e3a,%ebp
  401226:	eb c1                	jmp    4011e9 <main+0x49>
  401228:	48 8b 3b             	mov    (%rbx),%rdi
  40122b:	e8 a7 fd ff ff       	callq  400fd7 <usage>
  401230:	be 9d 31 40 00       	mov    $0x40319d,%esi
  401235:	48 8b 3d 8c 32 20 00 	mov    0x20328c(%rip),%rdi        # 6044c8 <optarg@@GLIBC_2.2.5>
  40123c:	e8 3f fc ff ff       	callq  400e80 <fopen@plt>
  401241:	48 89 05 a8 32 20 00 	mov    %rax,0x2032a8(%rip)        # 6044f0 <infile>
  401248:	48 85 c0             	test   %rax,%rax
  40124b:	75 3b                	jne    401288 <main+0xe8>
  40124d:	48 8b 15 74 32 20 00 	mov    0x203274(%rip),%rdx        # 6044c8 <optarg@@GLIBC_2.2.5>
  401254:	be 42 2e 40 00       	mov    $0x402e42,%esi
  401259:	48 8b 3d 70 32 20 00 	mov    0x203270(%rip),%rdi        # 6044d0 <stderr@@GLIBC_2.2.5>
  401260:	e8 7b fb ff ff       	callq  400de0 <fprintf@plt>
  401265:	b8 01 00 00 00       	mov    $0x1,%eax
  40126a:	e9 c2 00 00 00       	jmpq   401331 <main+0x191>
  40126f:	ba 10 00 00 00       	mov    $0x10,%edx
  401274:	be 00 00 00 00       	mov    $0x0,%esi
  401279:	48 8b 3d 48 32 20 00 	mov    0x203248(%rip),%rdi        # 6044c8 <optarg@@GLIBC_2.2.5>
  401280:	e8 1b fc ff ff       	callq  400ea0 <strtoul@plt>
  401285:	41 89 c6             	mov    %eax,%r14d
  401288:	48 89 ea             	mov    %rbp,%rdx
  40128b:	48 89 de             	mov    %rbx,%rsi
  40128e:	44 89 e7             	mov    %r12d,%edi
  401291:	e8 fa fb ff ff       	callq  400e90 <getopt@plt>
  401296:	3c ff                	cmp    $0xff,%al
  401298:	74 52                	je     4012ec <main+0x14c>
  40129a:	0f be f0             	movsbl %al,%esi
  40129d:	83 e8 61             	sub    $0x61,%eax
  4012a0:	3c 10                	cmp    $0x10,%al
  4012a2:	77 31                	ja     4012d5 <main+0x135>
  4012a4:	0f b6 c0             	movzbl %al,%eax
  4012a7:	ff 24 c5 80 2e 40 00 	jmpq   *0x402e80(,%rax,8)
  4012ae:	ba 0a 00 00 00       	mov    $0xa,%edx
  4012b3:	be 00 00 00 00       	mov    $0x0,%esi
  4012b8:	48 8b 3d 09 32 20 00 	mov    0x203209(%rip),%rdi        # 6044c8 <optarg@@GLIBC_2.2.5>
  4012bf:	e8 3c fb ff ff       	callq  400e00 <strtol@plt>
  4012c4:	41 89 c5             	mov    %eax,%r13d
  4012c7:	eb bf                	jmp    401288 <main+0xe8>
  4012c9:	c7 05 d5 31 20 00 00 	movl   $0x0,0x2031d5(%rip)        # 6044a8 <notify>
  4012d0:	00 00 00 
  4012d3:	eb b3                	jmp    401288 <main+0xe8>
  4012d5:	bf 5f 2e 40 00       	mov    $0x402e5f,%edi
  4012da:	b8 00 00 00 00       	mov    $0x0,%eax
  4012df:	e8 7c fa ff ff       	callq  400d60 <printf@plt>
  4012e4:	48 8b 3b             	mov    (%rbx),%rdi
  4012e7:	e8 eb fc ff ff       	callq  400fd7 <usage>
  4012ec:	be 00 00 00 00       	mov    $0x0,%esi
  4012f1:	44 89 ef             	mov    %r13d,%edi
  4012f4:	e8 5e fd ff ff       	callq  401057 <initialize_target>
  4012f9:	83 3d 08 32 20 00 00 	cmpl   $0x0,0x203208(%rip)        # 604508 <is_checker>
  401300:	74 09                	je     40130b <main+0x16b>
  401302:	44 39 35 f7 31 20 00 	cmp    %r14d,0x2031f7(%rip)        # 604500 <authkey>
  401309:	75 2f                	jne    40133a <main+0x19a>
  40130b:	8b 35 f3 31 20 00    	mov    0x2031f3(%rip),%esi        # 604504 <cookie>
  401311:	bf 72 2e 40 00       	mov    $0x402e72,%edi
  401316:	b8 00 00 00 00       	mov    $0x0,%eax
  40131b:	e8 40 fa ff ff       	callq  400d60 <printf@plt>
  401320:	48 8b 3d 79 31 20 00 	mov    0x203179(%rip),%rdi        # 6044a0 <buf_offset>
  401327:	e8 2b 0b 00 00       	callq  401e57 <stable_launch>
  40132c:	b8 00 00 00 00       	mov    $0x0,%eax
  401331:	5b                   	pop    %rbx
  401332:	5d                   	pop    %rbp
  401333:	41 5c                	pop    %r12
  401335:	41 5d                	pop    %r13
  401337:	41 5e                	pop    %r14
  401339:	c3                   	retq   
  40133a:	44 89 f6             	mov    %r14d,%esi
  40133d:	bf 98 2d 40 00       	mov    $0x402d98,%edi
  401342:	b8 00 00 00 00       	mov    $0x0,%eax
  401347:	e8 14 fa ff ff       	callq  400d60 <printf@plt>
  40134c:	b8 00 00 00 00       	mov    $0x0,%eax
  401351:	e8 42 06 00 00       	callq  401998 <check_fail>
  401356:	eb b3                	jmp    40130b <main+0x16b>

0000000000401358 <scramble>:
  401358:	b8 00 00 00 00       	mov    $0x0,%eax
  40135d:	eb 11                	jmp    401370 <scramble+0x18>
  40135f:	69 d0 66 50 00 00    	imul   $0x5066,%eax,%edx
  401365:	01 fa                	add    %edi,%edx
  401367:	89 c1                	mov    %eax,%ecx
  401369:	89 54 8c d0          	mov    %edx,-0x30(%rsp,%rcx,4)
  40136d:	83 c0 01             	add    $0x1,%eax
  401370:	83 f8 09             	cmp    $0x9,%eax
  401373:	76 ea                	jbe    40135f <scramble+0x7>
  401375:	8b 44 24 e4          	mov    -0x1c(%rsp),%eax
  401379:	69 c0 ab 00 00 00    	imul   $0xab,%eax,%eax
  40137f:	89 44 24 e4          	mov    %eax,-0x1c(%rsp)
  401383:	8b 44 24 d4          	mov    -0x2c(%rsp),%eax
  401387:	69 c0 d5 9b 00 00    	imul   $0x9bd5,%eax,%eax
  40138d:	89 44 24 d4          	mov    %eax,-0x2c(%rsp)
  401391:	8b 44 24 dc          	mov    -0x24(%rsp),%eax
  401395:	69 c0 3c f1 00 00    	imul   $0xf13c,%eax,%eax
  40139b:	89 44 24 dc          	mov    %eax,-0x24(%rsp)
  40139f:	8b 44 24 dc          	mov    -0x24(%rsp),%eax
  4013a3:	69 c0 d3 e3 00 00    	imul   $0xe3d3,%eax,%eax
  4013a9:	89 44 24 dc          	mov    %eax,-0x24(%rsp)
  4013ad:	8b 44 24 ec          	mov    -0x14(%rsp),%eax
  4013b1:	69 c0 e7 fb 00 00    	imul   $0xfbe7,%eax,%eax
  4013b7:	89 44 24 ec          	mov    %eax,-0x14(%rsp)
  4013bb:	8b 44 24 d8          	mov    -0x28(%rsp),%eax
  4013bf:	69 c0 2a ff 00 00    	imul   $0xff2a,%eax,%eax
  4013c5:	89 44 24 d8          	mov    %eax,-0x28(%rsp)
  4013c9:	8b 44 24 dc          	mov    -0x24(%rsp),%eax
  4013cd:	69 c0 71 15 00 00    	imul   $0x1571,%eax,%eax
  4013d3:	89 44 24 dc          	mov    %eax,-0x24(%rsp)
  4013d7:	8b 44 24 f0          	mov    -0x10(%rsp),%eax
  4013db:	69 c0 3b e4 00 00    	imul   $0xe43b,%eax,%eax
  4013e1:	89 44 24 f0          	mov    %eax,-0x10(%rsp)
  4013e5:	8b 44 24 d8          	mov    -0x28(%rsp),%eax
  4013e9:	69 c0 4f f4 00 00    	imul   $0xf44f,%eax,%eax
  4013ef:	89 44 24 d8          	mov    %eax,-0x28(%rsp)
  4013f3:	8b 44 24 e0          	mov    -0x20(%rsp),%eax
  4013f7:	69 c0 c4 21 00 00    	imul   $0x21c4,%eax,%eax
  4013fd:	89 44 24 e0          	mov    %eax,-0x20(%rsp)
  401401:	8b 44 24 ec          	mov    -0x14(%rsp),%eax
  401405:	69 c0 52 a8 00 00    	imul   $0xa852,%eax,%eax
  40140b:	89 44 24 ec          	mov    %eax,-0x14(%rsp)
  40140f:	8b 44 24 d0          	mov    -0x30(%rsp),%eax
  401413:	69 c0 be e2 00 00    	imul   $0xe2be,%eax,%eax
  401419:	89 44 24 d0          	mov    %eax,-0x30(%rsp)
  40141d:	8b 44 24 ec          	mov    -0x14(%rsp),%eax
  401421:	69 c0 58 5e 00 00    	imul   $0x5e58,%eax,%eax
  401427:	89 44 24 ec          	mov    %eax,-0x14(%rsp)
  40142b:	8b 44 24 d4          	mov    -0x2c(%rsp),%eax
  40142f:	69 c0 50 81 00 00    	imul   $0x8150,%eax,%eax
  401435:	89 44 24 d4          	mov    %eax,-0x2c(%rsp)
  401439:	8b 44 24 d0          	mov    -0x30(%rsp),%eax
  40143d:	69 c0 e7 6e 00 00    	imul   $0x6ee7,%eax,%eax
  401443:	89 44 24 d0          	mov    %eax,-0x30(%rsp)
  401447:	8b 44 24 e0          	mov    -0x20(%rsp),%eax
  40144b:	69 c0 15 fb 00 00    	imul   $0xfb15,%eax,%eax
  401451:	89 44 24 e0          	mov    %eax,-0x20(%rsp)
  401455:	8b 44 24 e0          	mov    -0x20(%rsp),%eax
  401459:	69 c0 bb 82 00 00    	imul   $0x82bb,%eax,%eax
  40145f:	89 44 24 e0          	mov    %eax,-0x20(%rsp)
  401463:	8b 44 24 d4          	mov    -0x2c(%rsp),%eax
  401467:	69 c0 ed fb 00 00    	imul   $0xfbed,%eax,%eax
  40146d:	89 44 24 d4          	mov    %eax,-0x2c(%rsp)
  401471:	8b 44 24 dc          	mov    -0x24(%rsp),%eax
  401475:	69 c0 ca fa 00 00    	imul   $0xfaca,%eax,%eax
  40147b:	89 44 24 dc          	mov    %eax,-0x24(%rsp)
  40147f:	8b 44 24 e4          	mov    -0x1c(%rsp),%eax
  401483:	69 c0 1a ca 00 00    	imul   $0xca1a,%eax,%eax
  401489:	89 44 24 e4          	mov    %eax,-0x1c(%rsp)
  40148d:	8b 44 24 ec          	mov    -0x14(%rsp),%eax
  401491:	69 c0 f6 c9 00 00    	imul   $0xc9f6,%eax,%eax
  401497:	89 44 24 ec          	mov    %eax,-0x14(%rsp)
  40149b:	8b 44 24 ec          	mov    -0x14(%rsp),%eax
  40149f:	69 c0 93 74 00 00    	imul   $0x7493,%eax,%eax
  4014a5:	89 44 24 ec          	mov    %eax,-0x14(%rsp)
  4014a9:	8b 44 24 f4          	mov    -0xc(%rsp),%eax
  4014ad:	69 c0 a0 8b 00 00    	imul   $0x8ba0,%eax,%eax
  4014b3:	89 44 24 f4          	mov    %eax,-0xc(%rsp)
  4014b7:	8b 44 24 dc          	mov    -0x24(%rsp),%eax
  4014bb:	69 c0 66 70 00 00    	imul   $0x7066,%eax,%eax
  4014c1:	89 44 24 dc          	mov    %eax,-0x24(%rsp)
  4014c5:	8b 44 24 e8          	mov    -0x18(%rsp),%eax
  4014c9:	69 c0 41 d8 00 00    	imul   $0xd841,%eax,%eax
  4014cf:	89 44 24 e8          	mov    %eax,-0x18(%rsp)
  4014d3:	8b 44 24 e8          	mov    -0x18(%rsp),%eax
  4014d7:	69 c0 b9 3b 00 00    	imul   $0x3bb9,%eax,%eax
  4014dd:	89 44 24 e8          	mov    %eax,-0x18(%rsp)
  4014e1:	8b 44 24 ec          	mov    -0x14(%rsp),%eax
  4014e5:	69 c0 15 24 00 00    	imul   $0x2415,%eax,%eax
  4014eb:	89 44 24 ec          	mov    %eax,-0x14(%rsp)
  4014ef:	8b 44 24 e0          	mov    -0x20(%rsp),%eax
  4014f3:	69 c0 0e 3c 00 00    	imul   $0x3c0e,%eax,%eax
  4014f9:	89 44 24 e0          	mov    %eax,-0x20(%rsp)
  4014fd:	8b 44 24 e8          	mov    -0x18(%rsp),%eax
  401501:	69 c0 06 34 00 00    	imul   $0x3406,%eax,%eax
  401507:	89 44 24 e8          	mov    %eax,-0x18(%rsp)
  40150b:	8b 44 24 dc          	mov    -0x24(%rsp),%eax
  40150f:	69 c0 1d 2d 00 00    	imul   $0x2d1d,%eax,%eax
  401515:	89 44 24 dc          	mov    %eax,-0x24(%rsp)
  401519:	8b 44 24 ec          	mov    -0x14(%rsp),%eax
  40151d:	69 c0 4c bd 00 00    	imul   $0xbd4c,%eax,%eax
  401523:	89 44 24 ec          	mov    %eax,-0x14(%rsp)
  401527:	8b 44 24 e4          	mov    -0x1c(%rsp),%eax
  40152b:	69 c0 7f 12 00 00    	imul   $0x127f,%eax,%eax
  401531:	89 44 24 e4          	mov    %eax,-0x1c(%rsp)
  401535:	8b 44 24 e0          	mov    -0x20(%rsp),%eax
  401539:	69 c0 1d bf 00 00    	imul   $0xbf1d,%eax,%eax
  40153f:	89 44 24 e0          	mov    %eax,-0x20(%rsp)
  401543:	8b 44 24 e4          	mov    -0x1c(%rsp),%eax
  401547:	69 c0 ff b3 00 00    	imul   $0xb3ff,%eax,%eax
  40154d:	89 44 24 e4          	mov    %eax,-0x1c(%rsp)
  401551:	8b 44 24 dc          	mov    -0x24(%rsp),%eax
  401555:	69 c0 2d ee 00 00    	imul   $0xee2d,%eax,%eax
  40155b:	89 44 24 dc          	mov    %eax,-0x24(%rsp)
  40155f:	8b 44 24 d0          	mov    -0x30(%rsp),%eax
  401563:	69 c0 98 b0 00 00    	imul   $0xb098,%eax,%eax
  401569:	89 44 24 d0          	mov    %eax,-0x30(%rsp)
  40156d:	8b 44 24 f0          	mov    -0x10(%rsp),%eax
  401571:	69 c0 5e 47 00 00    	imul   $0x475e,%eax,%eax
  401577:	89 44 24 f0          	mov    %eax,-0x10(%rsp)
  40157b:	8b 44 24 d8          	mov    -0x28(%rsp),%eax
  40157f:	69 c0 8b 97 00 00    	imul   $0x978b,%eax,%eax
  401585:	89 44 24 d8          	mov    %eax,-0x28(%rsp)
  401589:	8b 44 24 f4          	mov    -0xc(%rsp),%eax
  40158d:	69 c0 fb 7d 00 00    	imul   $0x7dfb,%eax,%eax
  401593:	89 44 24 f4          	mov    %eax,-0xc(%rsp)
  401597:	8b 44 24 d8          	mov    -0x28(%rsp),%eax
  40159b:	69 c0 ed 52 00 00    	imul   $0x52ed,%eax,%eax
  4015a1:	89 44 24 d8          	mov    %eax,-0x28(%rsp)
  4015a5:	8b 44 24 d8          	mov    -0x28(%rsp),%eax
  4015a9:	69 c0 1c 9a 00 00    	imul   $0x9a1c,%eax,%eax
  4015af:	89 44 24 d8          	mov    %eax,-0x28(%rsp)
  4015b3:	8b 44 24 dc          	mov    -0x24(%rsp),%eax
  4015b7:	69 c0 d0 d6 00 00    	imul   $0xd6d0,%eax,%eax
  4015bd:	89 44 24 dc          	mov    %eax,-0x24(%rsp)
  4015c1:	8b 44 24 ec          	mov    -0x14(%rsp),%eax
  4015c5:	69 c0 1d ad 00 00    	imul   $0xad1d,%eax,%eax
  4015cb:	89 44 24 ec          	mov    %eax,-0x14(%rsp)
  4015cf:	8b 44 24 e4          	mov    -0x1c(%rsp),%eax
  4015d3:	69 c0 9f 40 00 00    	imul   $0x409f,%eax,%eax
  4015d9:	89 44 24 e4          	mov    %eax,-0x1c(%rsp)
  4015dd:	8b 44 24 e4          	mov    -0x1c(%rsp),%eax
  4015e1:	69 c0 3d d0 00 00    	imul   $0xd03d,%eax,%eax
  4015e7:	89 44 24 e4          	mov    %eax,-0x1c(%rsp)
  4015eb:	8b 44 24 e0          	mov    -0x20(%rsp),%eax
  4015ef:	69 c0 10 84 00 00    	imul   $0x8410,%eax,%eax
  4015f5:	89 44 24 e0          	mov    %eax,-0x20(%rsp)
  4015f9:	8b 44 24 f4          	mov    -0xc(%rsp),%eax
  4015fd:	69 c0 f0 95 00 00    	imul   $0x95f0,%eax,%eax
  401603:	89 44 24 f4          	mov    %eax,-0xc(%rsp)
  401607:	8b 44 24 f4          	mov    -0xc(%rsp),%eax
  40160b:	69 c0 91 cd 00 00    	imul   $0xcd91,%eax,%eax
  401611:	89 44 24 f4          	mov    %eax,-0xc(%rsp)
  401615:	8b 44 24 f0          	mov    -0x10(%rsp),%eax
  401619:	69 c0 fc a4 00 00    	imul   $0xa4fc,%eax,%eax
  40161f:	89 44 24 f0          	mov    %eax,-0x10(%rsp)
  401623:	8b 44 24 e4          	mov    -0x1c(%rsp),%eax
  401627:	69 c0 f5 0e 00 00    	imul   $0xef5,%eax,%eax
  40162d:	89 44 24 e4          	mov    %eax,-0x1c(%rsp)
  401631:	8b 44 24 e4          	mov    -0x1c(%rsp),%eax
  401635:	69 c0 aa ff 00 00    	imul   $0xffaa,%eax,%eax
  40163b:	89 44 24 e4          	mov    %eax,-0x1c(%rsp)
  40163f:	8b 44 24 e0          	mov    -0x20(%rsp),%eax
  401643:	69 c0 4d 4b 00 00    	imul   $0x4b4d,%eax,%eax
  401649:	89 44 24 e0          	mov    %eax,-0x20(%rsp)
  40164d:	8b 44 24 ec          	mov    -0x14(%rsp),%eax
  401651:	69 c0 b9 e4 00 00    	imul   $0xe4b9,%eax,%eax
  401657:	89 44 24 ec          	mov    %eax,-0x14(%rsp)
  40165b:	8b 44 24 e8          	mov    -0x18(%rsp),%eax
  40165f:	69 c0 07 1a 00 00    	imul   $0x1a07,%eax,%eax
  401665:	89 44 24 e8          	mov    %eax,-0x18(%rsp)
  401669:	8b 44 24 d8          	mov    -0x28(%rsp),%eax
  40166d:	69 c0 ca ea 00 00    	imul   $0xeaca,%eax,%eax
  401673:	89 44 24 d8          	mov    %eax,-0x28(%rsp)
  401677:	8b 44 24 e0          	mov    -0x20(%rsp),%eax
  40167b:	69 c0 f1 b8 00 00    	imul   $0xb8f1,%eax,%eax
  401681:	89 44 24 e0          	mov    %eax,-0x20(%rsp)
  401685:	8b 44 24 ec          	mov    -0x14(%rsp),%eax
  401689:	69 c0 9b fb 00 00    	imul   $0xfb9b,%eax,%eax
  40168f:	89 44 24 ec          	mov    %eax,-0x14(%rsp)
  401693:	8b 44 24 d0          	mov    -0x30(%rsp),%eax
  401697:	69 c0 18 43 00 00    	imul   $0x4318,%eax,%eax
  40169d:	89 44 24 d0          	mov    %eax,-0x30(%rsp)
  4016a1:	8b 44 24 ec          	mov    -0x14(%rsp),%eax
  4016a5:	69 c0 a0 a2 00 00    	imul   $0xa2a0,%eax,%eax
  4016ab:	89 44 24 ec          	mov    %eax,-0x14(%rsp)
  4016af:	8b 44 24 d8          	mov    -0x28(%rsp),%eax
  4016b3:	69 c0 dc 89 00 00    	imul   $0x89dc,%eax,%eax
  4016b9:	89 44 24 d8          	mov    %eax,-0x28(%rsp)
  4016bd:	8b 44 24 f0          	mov    -0x10(%rsp),%eax
  4016c1:	69 c0 74 f1 00 00    	imul   $0xf174,%eax,%eax
  4016c7:	89 44 24 f0          	mov    %eax,-0x10(%rsp)
  4016cb:	8b 44 24 f0          	mov    -0x10(%rsp),%eax
  4016cf:	6b c0 68             	imul   $0x68,%eax,%eax
  4016d2:	89 44 24 f0          	mov    %eax,-0x10(%rsp)
  4016d6:	8b 44 24 f4          	mov    -0xc(%rsp),%eax
  4016da:	69 c0 7c a4 00 00    	imul   $0xa47c,%eax,%eax
  4016e0:	89 44 24 f4          	mov    %eax,-0xc(%rsp)
  4016e4:	8b 44 24 e8          	mov    -0x18(%rsp),%eax
  4016e8:	69 c0 72 dc 00 00    	imul   $0xdc72,%eax,%eax
  4016ee:	89 44 24 e8          	mov    %eax,-0x18(%rsp)
  4016f2:	8b 44 24 dc          	mov    -0x24(%rsp),%eax
  4016f6:	69 c0 8a 4f 00 00    	imul   $0x4f8a,%eax,%eax
  4016fc:	89 44 24 dc          	mov    %eax,-0x24(%rsp)
  401700:	8b 44 24 e0          	mov    -0x20(%rsp),%eax
  401704:	69 c0 a1 dc 00 00    	imul   $0xdca1,%eax,%eax
  40170a:	89 44 24 e0          	mov    %eax,-0x20(%rsp)
  40170e:	8b 44 24 f4          	mov    -0xc(%rsp),%eax
  401712:	69 c0 f4 aa 00 00    	imul   $0xaaf4,%eax,%eax
  401718:	89 44 24 f4          	mov    %eax,-0xc(%rsp)
  40171c:	8b 44 24 f0          	mov    -0x10(%rsp),%eax
  401720:	69 c0 3c 96 00 00    	imul   $0x963c,%eax,%eax
  401726:	89 44 24 f0          	mov    %eax,-0x10(%rsp)
  40172a:	8b 44 24 ec          	mov    -0x14(%rsp),%eax
  40172e:	69 c0 c8 0a 00 00    	imul   $0xac8,%eax,%eax
  401734:	89 44 24 ec          	mov    %eax,-0x14(%rsp)
  401738:	8b 44 24 e0          	mov    -0x20(%rsp),%eax
  40173c:	69 c0 62 f2 00 00    	imul   $0xf262,%eax,%eax
  401742:	89 44 24 e0          	mov    %eax,-0x20(%rsp)
  401746:	8b 44 24 e4          	mov    -0x1c(%rsp),%eax
  40174a:	69 c0 38 1d 00 00    	imul   $0x1d38,%eax,%eax
  401750:	89 44 24 e4          	mov    %eax,-0x1c(%rsp)
  401754:	8b 44 24 d4          	mov    -0x2c(%rsp),%eax
  401758:	69 c0 79 7a 00 00    	imul   $0x7a79,%eax,%eax
  40175e:	89 44 24 d4          	mov    %eax,-0x2c(%rsp)
  401762:	8b 44 24 d4          	mov    -0x2c(%rsp),%eax
  401766:	69 c0 15 3b 00 00    	imul   $0x3b15,%eax,%eax
  40176c:	89 44 24 d4          	mov    %eax,-0x2c(%rsp)
  401770:	ba 00 00 00 00       	mov    $0x0,%edx
  401775:	b8 00 00 00 00       	mov    $0x0,%eax
  40177a:	eb 0b                	jmp    401787 <scramble+0x42f>
  40177c:	89 d1                	mov    %edx,%ecx
  40177e:	8b 4c 8c d0          	mov    -0x30(%rsp,%rcx,4),%ecx
  401782:	01 c8                	add    %ecx,%eax
  401784:	83 c2 01             	add    $0x1,%edx
  401787:	83 fa 09             	cmp    $0x9,%edx
  40178a:	76 f0                	jbe    40177c <scramble+0x424>
  40178c:	f3 c3                	repz retq 

000000000040178e <getbuf>:
  40178e:	48 83 ec 18          	sub    $0x18,%rsp
  401792:	48 89 e7             	mov    %rsp,%rdi
  401795:	e8 2d 02 00 00       	callq  4019c7 <Gets>
  40179a:	b8 01 00 00 00       	mov    $0x1,%eax
  40179f:	48 83 c4 18          	add    $0x18,%rsp
  4017a3:	c3                   	retq   

00000000004017a4 <touch1>:
  4017a4:	48 83 ec 08          	sub    $0x8,%rsp
  4017a8:	c7 05 4a 2d 20 00 01 	movl   $0x1,0x202d4a(%rip)        # 6044fc <vlevel>
  4017af:	00 00 00 
  4017b2:	bf f5 2f 40 00       	mov    $0x402ff5,%edi
  4017b7:	e8 74 f5 ff ff       	callq  400d30 <puts@plt>
  4017bc:	bf 01 00 00 00       	mov    $0x1,%edi
  4017c1:	e8 fc 03 00 00       	callq  401bc2 <validate>
  4017c6:	bf 00 00 00 00       	mov    $0x0,%edi
  4017cb:	e8 00 f7 ff ff       	callq  400ed0 <exit@plt>

00000000004017d0 <touch2>:
  4017d0:	48 83 ec 08          	sub    $0x8,%rsp
  4017d4:	89 fe                	mov    %edi,%esi
  4017d6:	c7 05 1c 2d 20 00 02 	movl   $0x2,0x202d1c(%rip)        # 6044fc <vlevel>
  4017dd:	00 00 00 
  4017e0:	39 3d 1e 2d 20 00    	cmp    %edi,0x202d1e(%rip)        # 604504 <cookie>
  4017e6:	74 23                	je     40180b <touch2+0x3b>
  4017e8:	bf 40 30 40 00       	mov    $0x403040,%edi
  4017ed:	b8 00 00 00 00       	mov    $0x0,%eax
  4017f2:	e8 69 f5 ff ff       	callq  400d60 <printf@plt>
  4017f7:	bf 02 00 00 00       	mov    $0x2,%edi
  4017fc:	e8 73 04 00 00       	callq  401c74 <fail>
  401801:	bf 00 00 00 00       	mov    $0x0,%edi
  401806:	e8 c5 f6 ff ff       	callq  400ed0 <exit@plt>
  40180b:	bf 18 30 40 00       	mov    $0x403018,%edi
  401810:	b8 00 00 00 00       	mov    $0x0,%eax
  401815:	e8 46 f5 ff ff       	callq  400d60 <printf@plt>
  40181a:	bf 02 00 00 00       	mov    $0x2,%edi
  40181f:	e8 9e 03 00 00       	callq  401bc2 <validate>
  401824:	eb db                	jmp    401801 <touch2+0x31>

0000000000401826 <hexmatch>:
  401826:	41 54                	push   %r12
  401828:	55                   	push   %rbp
  401829:	53                   	push   %rbx
  40182a:	48 83 ec 70          	sub    $0x70,%rsp
  40182e:	89 fd                	mov    %edi,%ebp
  401830:	48 89 f3             	mov    %rsi,%rbx
  401833:	e8 f8 f5 ff ff       	callq  400e30 <random@plt>
  401838:	48 89 c1             	mov    %rax,%rcx
  40183b:	48 ba 0b d7 a3 70 3d 	movabs $0xa3d70a3d70a3d70b,%rdx
  401842:	0a d7 a3 
  401845:	48 f7 ea             	imul   %rdx
  401848:	48 01 ca             	add    %rcx,%rdx
  40184b:	48 c1 fa 06          	sar    $0x6,%rdx
  40184f:	48 89 c8             	mov    %rcx,%rax
  401852:	48 c1 f8 3f          	sar    $0x3f,%rax
  401856:	48 29 c2             	sub    %rax,%rdx
  401859:	48 8d 04 92          	lea    (%rdx,%rdx,4),%rax
  40185d:	48 8d 14 80          	lea    (%rax,%rax,4),%rdx
  401861:	48 8d 04 95 00 00 00 	lea    0x0(,%rdx,4),%rax
  401868:	00 
  401869:	48 29 c1             	sub    %rax,%rcx
  40186c:	4c 8d 24 0c          	lea    (%rsp,%rcx,1),%r12
  401870:	89 ea                	mov    %ebp,%edx
  401872:	be 12 30 40 00       	mov    $0x403012,%esi
  401877:	4c 89 e7             	mov    %r12,%rdi
  40187a:	b8 00 00 00 00       	mov    $0x0,%eax
  40187f:	e8 3c f6 ff ff       	callq  400ec0 <sprintf@plt>
  401884:	ba 09 00 00 00       	mov    $0x9,%edx
  401889:	4c 89 e6             	mov    %r12,%rsi
  40188c:	48 89 df             	mov    %rbx,%rdi
  40188f:	e8 7c f4 ff ff       	callq  400d10 <strncmp@plt>
  401894:	85 c0                	test   %eax,%eax
  401896:	0f 94 c0             	sete   %al
  401899:	0f b6 c0             	movzbl %al,%eax
  40189c:	48 83 c4 70          	add    $0x70,%rsp
  4018a0:	5b                   	pop    %rbx
  4018a1:	5d                   	pop    %rbp
  4018a2:	41 5c                	pop    %r12
  4018a4:	c3                   	retq   

00000000004018a5 <touch3>:
  4018a5:	53                   	push   %rbx
  4018a6:	48 89 fb             	mov    %rdi,%rbx
  4018a9:	c7 05 49 2c 20 00 03 	movl   $0x3,0x202c49(%rip)        # 6044fc <vlevel>
  4018b0:	00 00 00 
  4018b3:	48 89 fe             	mov    %rdi,%rsi
  4018b6:	8b 3d 48 2c 20 00    	mov    0x202c48(%rip),%edi        # 604504 <cookie>
  4018bc:	e8 65 ff ff ff       	callq  401826 <hexmatch>
  4018c1:	85 c0                	test   %eax,%eax
  4018c3:	74 26                	je     4018eb <touch3+0x46>
  4018c5:	48 89 de             	mov    %rbx,%rsi
  4018c8:	bf 68 30 40 00       	mov    $0x403068,%edi
  4018cd:	b8 00 00 00 00       	mov    $0x0,%eax
  4018d2:	e8 89 f4 ff ff       	callq  400d60 <printf@plt>
  4018d7:	bf 03 00 00 00       	mov    $0x3,%edi
  4018dc:	e8 e1 02 00 00       	callq  401bc2 <validate>
  4018e1:	bf 00 00 00 00       	mov    $0x0,%edi
  4018e6:	e8 e5 f5 ff ff       	callq  400ed0 <exit@plt>
  4018eb:	48 89 de             	mov    %rbx,%rsi
  4018ee:	bf 90 30 40 00       	mov    $0x403090,%edi
  4018f3:	b8 00 00 00 00       	mov    $0x0,%eax
  4018f8:	e8 63 f4 ff ff       	callq  400d60 <printf@plt>
  4018fd:	bf 03 00 00 00       	mov    $0x3,%edi
  401902:	e8 6d 03 00 00       	callq  401c74 <fail>
  401907:	eb d8                	jmp    4018e1 <touch3+0x3c>

0000000000401909 <test>:
  401909:	48 83 ec 08          	sub    $0x8,%rsp
  40190d:	b8 00 00 00 00       	mov    $0x0,%eax
  401912:	e8 77 fe ff ff       	callq  40178e <getbuf>
  401917:	89 c6                	mov    %eax,%esi
  401919:	bf b8 30 40 00       	mov    $0x4030b8,%edi
  40191e:	b8 00 00 00 00       	mov    $0x0,%eax
  401923:	e8 38 f4 ff ff       	callq  400d60 <printf@plt>
  401928:	48 83 c4 08          	add    $0x8,%rsp
  40192c:	c3                   	retq   

000000000040192d <save_char>:
  40192d:	8b 05 f1 37 20 00    	mov    0x2037f1(%rip),%eax        # 605124 <gets_cnt>
  401933:	3d ff 03 00 00       	cmp    $0x3ff,%eax
  401938:	7f 49                	jg     401983 <save_char+0x56>
  40193a:	89 f9                	mov    %edi,%ecx
  40193c:	c0 e9 04             	shr    $0x4,%cl
  40193f:	8d 14 40             	lea    (%rax,%rax,2),%edx
  401942:	83 e1 0f             	and    $0xf,%ecx
  401945:	0f b6 b1 e0 33 40 00 	movzbl 0x4033e0(%rcx),%esi
  40194c:	48 63 ca             	movslq %edx,%rcx
  40194f:	40 88 b1 20 45 60 00 	mov    %sil,0x604520(%rcx)
  401956:	8d 4a 01             	lea    0x1(%rdx),%ecx
  401959:	83 e7 0f             	and    $0xf,%edi
  40195c:	0f b6 b7 e0 33 40 00 	movzbl 0x4033e0(%rdi),%esi
  401963:	48 63 c9             	movslq %ecx,%rcx
  401966:	40 88 b1 20 45 60 00 	mov    %sil,0x604520(%rcx)
  40196d:	83 c2 02             	add    $0x2,%edx
  401970:	48 63 d2             	movslq %edx,%rdx
  401973:	c6 82 20 45 60 00 20 	movb   $0x20,0x604520(%rdx)
  40197a:	83 c0 01             	add    $0x1,%eax
  40197d:	89 05 a1 37 20 00    	mov    %eax,0x2037a1(%rip)        # 605124 <gets_cnt>
  401983:	f3 c3                	repz retq 

0000000000401985 <save_term>:
  401985:	8b 05 99 37 20 00    	mov    0x203799(%rip),%eax        # 605124 <gets_cnt>
  40198b:	8d 04 40             	lea    (%rax,%rax,2),%eax
  40198e:	48 98                	cltq   
  401990:	c6 80 20 45 60 00 00 	movb   $0x0,0x604520(%rax)
  401997:	c3                   	retq   

0000000000401998 <check_fail>:
  401998:	48 83 ec 08          	sub    $0x8,%rsp
  40199c:	0f be 35 85 37 20 00 	movsbl 0x203785(%rip),%esi        # 605128 <target_prefix>
  4019a3:	b9 20 45 60 00       	mov    $0x604520,%ecx
  4019a8:	8b 15 4a 2b 20 00    	mov    0x202b4a(%rip),%edx        # 6044f8 <check_level>
  4019ae:	bf db 30 40 00       	mov    $0x4030db,%edi
  4019b3:	b8 00 00 00 00       	mov    $0x0,%eax
  4019b8:	e8 a3 f3 ff ff       	callq  400d60 <printf@plt>
  4019bd:	bf 01 00 00 00       	mov    $0x1,%edi
  4019c2:	e8 09 f5 ff ff       	callq  400ed0 <exit@plt>

00000000004019c7 <Gets>:
  4019c7:	41 54                	push   %r12
  4019c9:	55                   	push   %rbp
  4019ca:	53                   	push   %rbx
  4019cb:	49 89 fc             	mov    %rdi,%r12
  4019ce:	c7 05 4c 37 20 00 00 	movl   $0x0,0x20374c(%rip)        # 605124 <gets_cnt>
  4019d5:	00 00 00 
  4019d8:	48 89 fb             	mov    %rdi,%rbx
  4019db:	eb 11                	jmp    4019ee <Gets+0x27>
  4019dd:	48 8d 6b 01          	lea    0x1(%rbx),%rbp
  4019e1:	88 03                	mov    %al,(%rbx)
  4019e3:	0f b6 f8             	movzbl %al,%edi
  4019e6:	e8 42 ff ff ff       	callq  40192d <save_char>
  4019eb:	48 89 eb             	mov    %rbp,%rbx
  4019ee:	48 8b 3d fb 2a 20 00 	mov    0x202afb(%rip),%rdi        # 6044f0 <infile>
  4019f5:	e8 46 f4 ff ff       	callq  400e40 <_IO_getc@plt>
  4019fa:	83 f8 ff             	cmp    $0xffffffff,%eax
  4019fd:	74 05                	je     401a04 <Gets+0x3d>
  4019ff:	83 f8 0a             	cmp    $0xa,%eax
  401a02:	75 d9                	jne    4019dd <Gets+0x16>
  401a04:	c6 03 00             	movb   $0x0,(%rbx)
  401a07:	b8 00 00 00 00       	mov    $0x0,%eax
  401a0c:	e8 74 ff ff ff       	callq  401985 <save_term>
  401a11:	4c 89 e0             	mov    %r12,%rax
  401a14:	5b                   	pop    %rbx
  401a15:	5d                   	pop    %rbp
  401a16:	41 5c                	pop    %r12
  401a18:	c3                   	retq   

0000000000401a19 <notify_server>:
  401a19:	83 3d e8 2a 20 00 00 	cmpl   $0x0,0x202ae8(%rip)        # 604508 <is_checker>
  401a20:	0f 85 9a 01 00 00    	jne    401bc0 <notify_server+0x1a7>
  401a26:	55                   	push   %rbp
  401a27:	53                   	push   %rbx
  401a28:	48 81 ec 08 40 00 00 	sub    $0x4008,%rsp
  401a2f:	89 fb                	mov    %edi,%ebx
  401a31:	8b 05 ed 36 20 00    	mov    0x2036ed(%rip),%eax        # 605124 <gets_cnt>
  401a37:	83 c0 64             	add    $0x64,%eax
  401a3a:	3d 00 20 00 00       	cmp    $0x2000,%eax
  401a3f:	0f 8f b5 00 00 00    	jg     401afa <notify_server+0xe1>
  401a45:	44 0f be 0d db 36 20 	movsbl 0x2036db(%rip),%r9d        # 605128 <target_prefix>
  401a4c:	00 
  401a4d:	83 3d 54 2a 20 00 00 	cmpl   $0x0,0x202a54(%rip)        # 6044a8 <notify>
  401a54:	0f 84 b9 00 00 00    	je     401b13 <notify_server+0xfa>
  401a5a:	44 8b 05 9f 2a 20 00 	mov    0x202a9f(%rip),%r8d        # 604500 <authkey>
  401a61:	85 db                	test   %ebx,%ebx
  401a63:	0f 84 b5 00 00 00    	je     401b1e <notify_server+0x105>
  401a69:	bd f1 30 40 00       	mov    $0x4030f1,%ebp
  401a6e:	68 20 45 60 00       	pushq  $0x604520
  401a73:	56                   	push   %rsi
  401a74:	48 89 e9             	mov    %rbp,%rcx
  401a77:	8b 15 eb 26 20 00    	mov    0x2026eb(%rip),%edx        # 604168 <target_id>
  401a7d:	be fb 30 40 00       	mov    $0x4030fb,%esi
  401a82:	48 8d bc 24 10 20 00 	lea    0x2010(%rsp),%rdi
  401a89:	00 
  401a8a:	b8 00 00 00 00       	mov    $0x0,%eax
  401a8f:	e8 2c f4 ff ff       	callq  400ec0 <sprintf@plt>
  401a94:	48 83 c4 10          	add    $0x10,%rsp
  401a98:	83 3d 09 2a 20 00 00 	cmpl   $0x0,0x202a09(%rip)        # 6044a8 <notify>
  401a9f:	0f 84 ab 00 00 00    	je     401b50 <notify_server+0x137>
  401aa5:	85 db                	test   %ebx,%ebx
  401aa7:	0f 84 97 00 00 00    	je     401b44 <notify_server+0x12b>
  401aad:	49 89 e1             	mov    %rsp,%r9
  401ab0:	41 b8 00 00 00 00    	mov    $0x0,%r8d
  401ab6:	48 8d 8c 24 00 20 00 	lea    0x2000(%rsp),%rcx
  401abd:	00 
  401abe:	48 8b 15 ab 26 20 00 	mov    0x2026ab(%rip),%rdx        # 604170 <lab>
  401ac5:	48 8b 35 ac 26 20 00 	mov    0x2026ac(%rip),%rsi        # 604178 <course>
  401acc:	48 8b 3d 8d 26 20 00 	mov    0x20268d(%rip),%rdi        # 604160 <user_id>
  401ad3:	e8 fb 0f 00 00       	callq  402ad3 <driver_post>
  401ad8:	85 c0                	test   %eax,%eax
  401ada:	78 4c                	js     401b28 <notify_server+0x10f>
  401adc:	bf 40 32 40 00       	mov    $0x403240,%edi
  401ae1:	e8 4a f2 ff ff       	callq  400d30 <puts@plt>
  401ae6:	bf 23 31 40 00       	mov    $0x403123,%edi
  401aeb:	e8 40 f2 ff ff       	callq  400d30 <puts@plt>
  401af0:	48 81 c4 08 40 00 00 	add    $0x4008,%rsp
  401af7:	5b                   	pop    %rbx
  401af8:	5d                   	pop    %rbp
  401af9:	c3                   	retq   
  401afa:	bf 10 32 40 00       	mov    $0x403210,%edi
  401aff:	b8 00 00 00 00       	mov    $0x0,%eax
  401b04:	e8 57 f2 ff ff       	callq  400d60 <printf@plt>
  401b09:	bf 01 00 00 00       	mov    $0x1,%edi
  401b0e:	e8 bd f3 ff ff       	callq  400ed0 <exit@plt>
  401b13:	41 b8 ff ff ff ff    	mov    $0xffffffff,%r8d
  401b19:	e9 43 ff ff ff       	jmpq   401a61 <notify_server+0x48>
  401b1e:	bd f6 30 40 00       	mov    $0x4030f6,%ebp
  401b23:	e9 46 ff ff ff       	jmpq   401a6e <notify_server+0x55>
  401b28:	48 89 e6             	mov    %rsp,%rsi
  401b2b:	bf 17 31 40 00       	mov    $0x403117,%edi
  401b30:	b8 00 00 00 00       	mov    $0x0,%eax
  401b35:	e8 26 f2 ff ff       	callq  400d60 <printf@plt>
  401b3a:	bf 01 00 00 00       	mov    $0x1,%edi
  401b3f:	e8 8c f3 ff ff       	callq  400ed0 <exit@plt>
  401b44:	bf 2d 31 40 00       	mov    $0x40312d,%edi
  401b49:	e8 e2 f1 ff ff       	callq  400d30 <puts@plt>
  401b4e:	eb a0                	jmp    401af0 <notify_server+0xd7>
  401b50:	48 89 ee             	mov    %rbp,%rsi
  401b53:	bf 78 32 40 00       	mov    $0x403278,%edi
  401b58:	b8 00 00 00 00       	mov    $0x0,%eax
  401b5d:	e8 fe f1 ff ff       	callq  400d60 <printf@plt>
  401b62:	48 8b 35 f7 25 20 00 	mov    0x2025f7(%rip),%rsi        # 604160 <user_id>
  401b69:	bf 34 31 40 00       	mov    $0x403134,%edi
  401b6e:	b8 00 00 00 00       	mov    $0x0,%eax
  401b73:	e8 e8 f1 ff ff       	callq  400d60 <printf@plt>
  401b78:	48 8b 35 f9 25 20 00 	mov    0x2025f9(%rip),%rsi        # 604178 <course>
  401b7f:	bf 41 31 40 00       	mov    $0x403141,%edi
  401b84:	b8 00 00 00 00       	mov    $0x0,%eax
  401b89:	e8 d2 f1 ff ff       	callq  400d60 <printf@plt>
  401b8e:	48 8b 35 db 25 20 00 	mov    0x2025db(%rip),%rsi        # 604170 <lab>
  401b95:	bf 4d 31 40 00       	mov    $0x40314d,%edi
  401b9a:	b8 00 00 00 00       	mov    $0x0,%eax
  401b9f:	e8 bc f1 ff ff       	callq  400d60 <printf@plt>
  401ba4:	48 8d b4 24 00 20 00 	lea    0x2000(%rsp),%rsi
  401bab:	00 
  401bac:	bf 56 31 40 00       	mov    $0x403156,%edi
  401bb1:	b8 00 00 00 00       	mov    $0x0,%eax
  401bb6:	e8 a5 f1 ff ff       	callq  400d60 <printf@plt>
  401bbb:	e9 30 ff ff ff       	jmpq   401af0 <notify_server+0xd7>
  401bc0:	f3 c3                	repz retq 

0000000000401bc2 <validate>:
  401bc2:	53                   	push   %rbx
  401bc3:	89 fb                	mov    %edi,%ebx
  401bc5:	83 3d 3c 29 20 00 00 	cmpl   $0x0,0x20293c(%rip)        # 604508 <is_checker>
  401bcc:	74 60                	je     401c2e <validate+0x6c>
  401bce:	39 3d 28 29 20 00    	cmp    %edi,0x202928(%rip)        # 6044fc <vlevel>
  401bd4:	75 29                	jne    401bff <validate+0x3d>
  401bd6:	8b 35 1c 29 20 00    	mov    0x20291c(%rip),%esi        # 6044f8 <check_level>
  401bdc:	39 fe                	cmp    %edi,%esi
  401bde:	75 33                	jne    401c13 <validate+0x51>
  401be0:	0f be 35 41 35 20 00 	movsbl 0x203541(%rip),%esi        # 605128 <target_prefix>
  401be7:	b9 20 45 60 00       	mov    $0x604520,%ecx
  401bec:	89 fa                	mov    %edi,%edx
  401bee:	bf 80 31 40 00       	mov    $0x403180,%edi
  401bf3:	b8 00 00 00 00       	mov    $0x0,%eax
  401bf8:	e8 63 f1 ff ff       	callq  400d60 <printf@plt>
  401bfd:	5b                   	pop    %rbx
  401bfe:	c3                   	retq   
  401bff:	bf 62 31 40 00       	mov    $0x403162,%edi
  401c04:	e8 27 f1 ff ff       	callq  400d30 <puts@plt>
  401c09:	b8 00 00 00 00       	mov    $0x0,%eax
  401c0e:	e8 85 fd ff ff       	callq  401998 <check_fail>
  401c13:	89 fa                	mov    %edi,%edx
  401c15:	bf a0 32 40 00       	mov    $0x4032a0,%edi
  401c1a:	b8 00 00 00 00       	mov    $0x0,%eax
  401c1f:	e8 3c f1 ff ff       	callq  400d60 <printf@plt>
  401c24:	b8 00 00 00 00       	mov    $0x0,%eax
  401c29:	e8 6a fd ff ff       	callq  401998 <check_fail>
  401c2e:	39 3d c8 28 20 00    	cmp    %edi,0x2028c8(%rip)        # 6044fc <vlevel>
  401c34:	74 18                	je     401c4e <validate+0x8c>
  401c36:	bf 62 31 40 00       	mov    $0x403162,%edi
  401c3b:	e8 f0 f0 ff ff       	callq  400d30 <puts@plt>
  401c40:	89 de                	mov    %ebx,%esi
  401c42:	bf 00 00 00 00       	mov    $0x0,%edi
  401c47:	e8 cd fd ff ff       	callq  401a19 <notify_server>
  401c4c:	eb af                	jmp    401bfd <validate+0x3b>
  401c4e:	0f be 15 d3 34 20 00 	movsbl 0x2034d3(%rip),%edx        # 605128 <target_prefix>
  401c55:	89 fe                	mov    %edi,%esi
  401c57:	bf c8 32 40 00       	mov    $0x4032c8,%edi
  401c5c:	b8 00 00 00 00       	mov    $0x0,%eax
  401c61:	e8 fa f0 ff ff       	callq  400d60 <printf@plt>
  401c66:	89 de                	mov    %ebx,%esi
  401c68:	bf 01 00 00 00       	mov    $0x1,%edi
  401c6d:	e8 a7 fd ff ff       	callq  401a19 <notify_server>
  401c72:	eb 89                	jmp    401bfd <validate+0x3b>

0000000000401c74 <fail>:
  401c74:	48 83 ec 08          	sub    $0x8,%rsp
  401c78:	83 3d 89 28 20 00 00 	cmpl   $0x0,0x202889(%rip)        # 604508 <is_checker>
  401c7f:	75 11                	jne    401c92 <fail+0x1e>
  401c81:	89 fe                	mov    %edi,%esi
  401c83:	bf 00 00 00 00       	mov    $0x0,%edi
  401c88:	e8 8c fd ff ff       	callq  401a19 <notify_server>
  401c8d:	48 83 c4 08          	add    $0x8,%rsp
  401c91:	c3                   	retq   
  401c92:	b8 00 00 00 00       	mov    $0x0,%eax
  401c97:	e8 fc fc ff ff       	callq  401998 <check_fail>

0000000000401c9c <bushandler>:
  401c9c:	48 83 ec 08          	sub    $0x8,%rsp
  401ca0:	83 3d 61 28 20 00 00 	cmpl   $0x0,0x202861(%rip)        # 604508 <is_checker>
  401ca7:	74 14                	je     401cbd <bushandler+0x21>
  401ca9:	bf 95 31 40 00       	mov    $0x403195,%edi
  401cae:	e8 7d f0 ff ff       	callq  400d30 <puts@plt>
  401cb3:	b8 00 00 00 00       	mov    $0x0,%eax
  401cb8:	e8 db fc ff ff       	callq  401998 <check_fail>
  401cbd:	bf 00 33 40 00       	mov    $0x403300,%edi
  401cc2:	e8 69 f0 ff ff       	callq  400d30 <puts@plt>
  401cc7:	bf 9f 31 40 00       	mov    $0x40319f,%edi
  401ccc:	e8 5f f0 ff ff       	callq  400d30 <puts@plt>
  401cd1:	be 00 00 00 00       	mov    $0x0,%esi
  401cd6:	bf 00 00 00 00       	mov    $0x0,%edi
  401cdb:	e8 39 fd ff ff       	callq  401a19 <notify_server>
  401ce0:	bf 01 00 00 00       	mov    $0x1,%edi
  401ce5:	e8 e6 f1 ff ff       	callq  400ed0 <exit@plt>

0000000000401cea <seghandler>:
  401cea:	48 83 ec 08          	sub    $0x8,%rsp
  401cee:	83 3d 13 28 20 00 00 	cmpl   $0x0,0x202813(%rip)        # 604508 <is_checker>
  401cf5:	74 14                	je     401d0b <seghandler+0x21>
  401cf7:	bf b5 31 40 00       	mov    $0x4031b5,%edi
  401cfc:	e8 2f f0 ff ff       	callq  400d30 <puts@plt>
  401d01:	b8 00 00 00 00       	mov    $0x0,%eax
  401d06:	e8 8d fc ff ff       	callq  401998 <check_fail>
  401d0b:	bf 20 33 40 00       	mov    $0x403320,%edi
  401d10:	e8 1b f0 ff ff       	callq  400d30 <puts@plt>
  401d15:	bf 9f 31 40 00       	mov    $0x40319f,%edi
  401d1a:	e8 11 f0 ff ff       	callq  400d30 <puts@plt>
  401d1f:	be 00 00 00 00       	mov    $0x0,%esi
  401d24:	bf 00 00 00 00       	mov    $0x0,%edi
  401d29:	e8 eb fc ff ff       	callq  401a19 <notify_server>
  401d2e:	bf 01 00 00 00       	mov    $0x1,%edi
  401d33:	e8 98 f1 ff ff       	callq  400ed0 <exit@plt>

0000000000401d38 <illegalhandler>:
  401d38:	48 83 ec 08          	sub    $0x8,%rsp
  401d3c:	83 3d c5 27 20 00 00 	cmpl   $0x0,0x2027c5(%rip)        # 604508 <is_checker>
  401d43:	74 14                	je     401d59 <illegalhandler+0x21>
  401d45:	bf c8 31 40 00       	mov    $0x4031c8,%edi
  401d4a:	e8 e1 ef ff ff       	callq  400d30 <puts@plt>
  401d4f:	b8 00 00 00 00       	mov    $0x0,%eax
  401d54:	e8 3f fc ff ff       	callq  401998 <check_fail>
  401d59:	bf 48 33 40 00       	mov    $0x403348,%edi
  401d5e:	e8 cd ef ff ff       	callq  400d30 <puts@plt>
  401d63:	bf 9f 31 40 00       	mov    $0x40319f,%edi
  401d68:	e8 c3 ef ff ff       	callq  400d30 <puts@plt>
  401d6d:	be 00 00 00 00       	mov    $0x0,%esi
  401d72:	bf 00 00 00 00       	mov    $0x0,%edi
  401d77:	e8 9d fc ff ff       	callq  401a19 <notify_server>
  401d7c:	bf 01 00 00 00       	mov    $0x1,%edi
  401d81:	e8 4a f1 ff ff       	callq  400ed0 <exit@plt>

0000000000401d86 <sigalrmhandler>:
  401d86:	48 83 ec 08          	sub    $0x8,%rsp
  401d8a:	83 3d 77 27 20 00 00 	cmpl   $0x0,0x202777(%rip)        # 604508 <is_checker>
  401d91:	74 14                	je     401da7 <sigalrmhandler+0x21>
  401d93:	bf dc 31 40 00       	mov    $0x4031dc,%edi
  401d98:	e8 93 ef ff ff       	callq  400d30 <puts@plt>
  401d9d:	b8 00 00 00 00       	mov    $0x0,%eax
  401da2:	e8 f1 fb ff ff       	callq  401998 <check_fail>
  401da7:	be 05 00 00 00       	mov    $0x5,%esi
  401dac:	bf 78 33 40 00       	mov    $0x403378,%edi
  401db1:	b8 00 00 00 00       	mov    $0x0,%eax
  401db6:	e8 a5 ef ff ff       	callq  400d60 <printf@plt>
  401dbb:	be 00 00 00 00       	mov    $0x0,%esi
  401dc0:	bf 00 00 00 00       	mov    $0x0,%edi
  401dc5:	e8 4f fc ff ff       	callq  401a19 <notify_server>
  401dca:	bf 01 00 00 00       	mov    $0x1,%edi
  401dcf:	e8 fc f0 ff ff       	callq  400ed0 <exit@plt>

0000000000401dd4 <launch>:
  401dd4:	55                   	push   %rbp
  401dd5:	48 89 e5             	mov    %rsp,%rbp
  401dd8:	48 89 fa             	mov    %rdi,%rdx
  401ddb:	48 8d 47 1e          	lea    0x1e(%rdi),%rax
  401ddf:	48 83 e0 f0          	and    $0xfffffffffffffff0,%rax
  401de3:	48 29 c4             	sub    %rax,%rsp
  401de6:	48 8d 7c 24 0f       	lea    0xf(%rsp),%rdi
  401deb:	48 83 e7 f0          	and    $0xfffffffffffffff0,%rdi
  401def:	be f4 00 00 00       	mov    $0xf4,%esi
  401df4:	e8 77 ef ff ff       	callq  400d70 <memset@plt>
  401df9:	48 8b 05 c0 26 20 00 	mov    0x2026c0(%rip),%rax        # 6044c0 <stdin@@GLIBC_2.2.5>
  401e00:	48 39 05 e9 26 20 00 	cmp    %rax,0x2026e9(%rip)        # 6044f0 <infile>
  401e07:	74 29                	je     401e32 <launch+0x5e>
  401e09:	c7 05 e9 26 20 00 00 	movl   $0x0,0x2026e9(%rip)        # 6044fc <vlevel>
  401e10:	00 00 00 
  401e13:	b8 00 00 00 00       	mov    $0x0,%eax
  401e18:	e8 ec fa ff ff       	callq  401909 <test>
  401e1d:	83 3d e4 26 20 00 00 	cmpl   $0x0,0x2026e4(%rip)        # 604508 <is_checker>
  401e24:	75 1d                	jne    401e43 <launch+0x6f>
  401e26:	bf fc 31 40 00       	mov    $0x4031fc,%edi
  401e2b:	e8 00 ef ff ff       	callq  400d30 <puts@plt>
  401e30:	c9                   	leaveq 
  401e31:	c3                   	retq   
  401e32:	bf e4 31 40 00       	mov    $0x4031e4,%edi
  401e37:	b8 00 00 00 00       	mov    $0x0,%eax
  401e3c:	e8 1f ef ff ff       	callq  400d60 <printf@plt>
  401e41:	eb c6                	jmp    401e09 <launch+0x35>
  401e43:	bf f1 31 40 00       	mov    $0x4031f1,%edi
  401e48:	e8 e3 ee ff ff       	callq  400d30 <puts@plt>
  401e4d:	b8 00 00 00 00       	mov    $0x0,%eax
  401e52:	e8 41 fb ff ff       	callq  401998 <check_fail>

0000000000401e57 <stable_launch>:
  401e57:	53                   	push   %rbx
  401e58:	48 89 3d 89 26 20 00 	mov    %rdi,0x202689(%rip)        # 6044e8 <global_offset>
  401e5f:	41 b9 00 00 00 00    	mov    $0x0,%r9d
  401e65:	41 b8 00 00 00 00    	mov    $0x0,%r8d
  401e6b:	b9 32 01 00 00       	mov    $0x132,%ecx
  401e70:	ba 07 00 00 00       	mov    $0x7,%edx
  401e75:	be 00 00 10 00       	mov    $0x100000,%esi
  401e7a:	bf 00 60 58 55       	mov    $0x55586000,%edi
  401e7f:	e8 cc ee ff ff       	callq  400d50 <mmap@plt>
  401e84:	48 89 c3             	mov    %rax,%rbx
  401e87:	48 3d 00 60 58 55    	cmp    $0x55586000,%rax
  401e8d:	75 43                	jne    401ed2 <stable_launch+0x7b>
  401e8f:	48 8d 90 f8 ff 0f 00 	lea    0xffff8(%rax),%rdx
  401e96:	48 89 15 93 32 20 00 	mov    %rdx,0x203293(%rip)        # 605130 <stack_top>
  401e9d:	48 89 e0             	mov    %rsp,%rax
  401ea0:	48 89 d4             	mov    %rdx,%rsp
  401ea3:	48 89 c2             	mov    %rax,%rdx
  401ea6:	48 89 15 33 26 20 00 	mov    %rdx,0x202633(%rip)        # 6044e0 <global_save_stack>
  401ead:	48 8b 3d 34 26 20 00 	mov    0x202634(%rip),%rdi        # 6044e8 <global_offset>
  401eb4:	e8 1b ff ff ff       	callq  401dd4 <launch>
  401eb9:	48 8b 05 20 26 20 00 	mov    0x202620(%rip),%rax        # 6044e0 <global_save_stack>
  401ec0:	48 89 c4             	mov    %rax,%rsp
  401ec3:	be 00 00 10 00       	mov    $0x100000,%esi
  401ec8:	48 89 df             	mov    %rbx,%rdi
  401ecb:	e8 90 ef ff ff       	callq  400e60 <munmap@plt>
  401ed0:	5b                   	pop    %rbx
  401ed1:	c3                   	retq   
  401ed2:	be 00 00 10 00       	mov    $0x100000,%esi
  401ed7:	48 89 c7             	mov    %rax,%rdi
  401eda:	e8 81 ef ff ff       	callq  400e60 <munmap@plt>
  401edf:	ba 00 60 58 55       	mov    $0x55586000,%edx
  401ee4:	be b0 33 40 00       	mov    $0x4033b0,%esi
  401ee9:	48 8b 3d e0 25 20 00 	mov    0x2025e0(%rip),%rdi        # 6044d0 <stderr@@GLIBC_2.2.5>
  401ef0:	b8 00 00 00 00       	mov    $0x0,%eax
  401ef5:	e8 e6 ee ff ff       	callq  400de0 <fprintf@plt>
  401efa:	bf 01 00 00 00       	mov    $0x1,%edi
  401eff:	e8 cc ef ff ff       	callq  400ed0 <exit@plt>

0000000000401f04 <rio_readinitb>:
  401f04:	89 37                	mov    %esi,(%rdi)
  401f06:	c7 47 04 00 00 00 00 	movl   $0x0,0x4(%rdi)
  401f0d:	48 8d 47 10          	lea    0x10(%rdi),%rax
  401f11:	48 89 47 08          	mov    %rax,0x8(%rdi)
  401f15:	c3                   	retq   

0000000000401f16 <sigalrm_handler>:
  401f16:	48 83 ec 08          	sub    $0x8,%rsp
  401f1a:	ba 00 00 00 00       	mov    $0x0,%edx
  401f1f:	be f0 33 40 00       	mov    $0x4033f0,%esi
  401f24:	48 8b 3d a5 25 20 00 	mov    0x2025a5(%rip),%rdi        # 6044d0 <stderr@@GLIBC_2.2.5>
  401f2b:	b8 00 00 00 00       	mov    $0x0,%eax
  401f30:	e8 ab ee ff ff       	callq  400de0 <fprintf@plt>
  401f35:	bf 01 00 00 00       	mov    $0x1,%edi
  401f3a:	e8 91 ef ff ff       	callq  400ed0 <exit@plt>

0000000000401f3f <urlencode>:
  401f3f:	41 54                	push   %r12
  401f41:	55                   	push   %rbp
  401f42:	53                   	push   %rbx
  401f43:	48 83 ec 10          	sub    $0x10,%rsp
  401f47:	48 89 fb             	mov    %rdi,%rbx
  401f4a:	48 89 f5             	mov    %rsi,%rbp
  401f4d:	48 c7 c1 ff ff ff ff 	mov    $0xffffffffffffffff,%rcx
  401f54:	b8 00 00 00 00       	mov    $0x0,%eax
  401f59:	f2 ae                	repnz scas %es:(%rdi),%al
  401f5b:	48 89 ce             	mov    %rcx,%rsi
  401f5e:	48 f7 d6             	not    %rsi
  401f61:	8d 46 ff             	lea    -0x1(%rsi),%eax
  401f64:	eb 0e                	jmp    401f74 <urlencode+0x35>
  401f66:	88 45 00             	mov    %al,0x0(%rbp)
  401f69:	48 8d 6d 01          	lea    0x1(%rbp),%rbp
  401f6d:	48 83 c3 01          	add    $0x1,%rbx
  401f71:	44 89 e0             	mov    %r12d,%eax
  401f74:	44 8d 60 ff          	lea    -0x1(%rax),%r12d
  401f78:	85 c0                	test   %eax,%eax
  401f7a:	0f 84 91 00 00 00    	je     402011 <urlencode+0xd2>
  401f80:	0f b6 03             	movzbl (%rbx),%eax
  401f83:	3c 2a                	cmp    $0x2a,%al
  401f85:	0f 94 c1             	sete   %cl
  401f88:	3c 2d                	cmp    $0x2d,%al
  401f8a:	0f 94 c2             	sete   %dl
  401f8d:	08 d1                	or     %dl,%cl
  401f8f:	75 d5                	jne    401f66 <urlencode+0x27>
  401f91:	3c 2e                	cmp    $0x2e,%al
  401f93:	74 d1                	je     401f66 <urlencode+0x27>
  401f95:	3c 5f                	cmp    $0x5f,%al
  401f97:	74 cd                	je     401f66 <urlencode+0x27>
  401f99:	8d 50 d0             	lea    -0x30(%rax),%edx
  401f9c:	80 fa 09             	cmp    $0x9,%dl
  401f9f:	76 c5                	jbe    401f66 <urlencode+0x27>
  401fa1:	8d 50 bf             	lea    -0x41(%rax),%edx
  401fa4:	80 fa 19             	cmp    $0x19,%dl
  401fa7:	76 bd                	jbe    401f66 <urlencode+0x27>
  401fa9:	8d 50 9f             	lea    -0x61(%rax),%edx
  401fac:	80 fa 19             	cmp    $0x19,%dl
  401faf:	76 b5                	jbe    401f66 <urlencode+0x27>
  401fb1:	3c 20                	cmp    $0x20,%al
  401fb3:	74 4a                	je     401fff <urlencode+0xc0>
  401fb5:	8d 50 e0             	lea    -0x20(%rax),%edx
  401fb8:	80 fa 5f             	cmp    $0x5f,%dl
  401fbb:	0f 96 c1             	setbe  %cl
  401fbe:	3c 09                	cmp    $0x9,%al
  401fc0:	0f 94 c2             	sete   %dl
  401fc3:	08 d1                	or     %dl,%cl
  401fc5:	74 45                	je     40200c <urlencode+0xcd>
  401fc7:	0f b6 d0             	movzbl %al,%edx
  401fca:	be 88 34 40 00       	mov    $0x403488,%esi
  401fcf:	48 8d 7c 24 08       	lea    0x8(%rsp),%rdi
  401fd4:	b8 00 00 00 00       	mov    $0x0,%eax
  401fd9:	e8 e2 ee ff ff       	callq  400ec0 <sprintf@plt>
  401fde:	0f b6 44 24 08       	movzbl 0x8(%rsp),%eax
  401fe3:	88 45 00             	mov    %al,0x0(%rbp)
  401fe6:	0f b6 44 24 09       	movzbl 0x9(%rsp),%eax
  401feb:	88 45 01             	mov    %al,0x1(%rbp)
  401fee:	0f b6 44 24 0a       	movzbl 0xa(%rsp),%eax
  401ff3:	88 45 02             	mov    %al,0x2(%rbp)
  401ff6:	48 8d 6d 03          	lea    0x3(%rbp),%rbp
  401ffa:	e9 6e ff ff ff       	jmpq   401f6d <urlencode+0x2e>
  401fff:	c6 45 00 2b          	movb   $0x2b,0x0(%rbp)
  402003:	48 8d 6d 01          	lea    0x1(%rbp),%rbp
  402007:	e9 61 ff ff ff       	jmpq   401f6d <urlencode+0x2e>
  40200c:	b8 ff ff ff ff       	mov    $0xffffffff,%eax
  402011:	48 83 c4 10          	add    $0x10,%rsp
  402015:	5b                   	pop    %rbx
  402016:	5d                   	pop    %rbp
  402017:	41 5c                	pop    %r12
  402019:	c3                   	retq   

000000000040201a <rio_writen>:
  40201a:	41 55                	push   %r13
  40201c:	41 54                	push   %r12
  40201e:	55                   	push   %rbp
  40201f:	53                   	push   %rbx
  402020:	48 83 ec 08          	sub    $0x8,%rsp
  402024:	41 89 fc             	mov    %edi,%r12d
  402027:	48 89 f5             	mov    %rsi,%rbp
  40202a:	49 89 d5             	mov    %rdx,%r13
  40202d:	48 89 d3             	mov    %rdx,%rbx
  402030:	eb 06                	jmp    402038 <rio_writen+0x1e>
  402032:	48 29 c3             	sub    %rax,%rbx
  402035:	48 01 c5             	add    %rax,%rbp
  402038:	48 85 db             	test   %rbx,%rbx
  40203b:	74 24                	je     402061 <rio_writen+0x47>
  40203d:	48 89 da             	mov    %rbx,%rdx
  402040:	48 89 ee             	mov    %rbp,%rsi
  402043:	44 89 e7             	mov    %r12d,%edi
  402046:	e8 f5 ec ff ff       	callq  400d40 <write@plt>
  40204b:	48 85 c0             	test   %rax,%rax
  40204e:	7f e2                	jg     402032 <rio_writen+0x18>
  402050:	e8 9b ec ff ff       	callq  400cf0 <__errno_location@plt>
  402055:	83 38 04             	cmpl   $0x4,(%rax)
  402058:	75 15                	jne    40206f <rio_writen+0x55>
  40205a:	b8 00 00 00 00       	mov    $0x0,%eax
  40205f:	eb d1                	jmp    402032 <rio_writen+0x18>
  402061:	4c 89 e8             	mov    %r13,%rax
  402064:	48 83 c4 08          	add    $0x8,%rsp
  402068:	5b                   	pop    %rbx
  402069:	5d                   	pop    %rbp
  40206a:	41 5c                	pop    %r12
  40206c:	41 5d                	pop    %r13
  40206e:	c3                   	retq   
  40206f:	48 c7 c0 ff ff ff ff 	mov    $0xffffffffffffffff,%rax
  402076:	eb ec                	jmp    402064 <rio_writen+0x4a>

0000000000402078 <rio_read>:
  402078:	41 55                	push   %r13
  40207a:	41 54                	push   %r12
  40207c:	55                   	push   %rbp
  40207d:	53                   	push   %rbx
  40207e:	48 83 ec 08          	sub    $0x8,%rsp
  402082:	48 89 fb             	mov    %rdi,%rbx
  402085:	49 89 f5             	mov    %rsi,%r13
  402088:	49 89 d4             	mov    %rdx,%r12
  40208b:	eb 0a                	jmp    402097 <rio_read+0x1f>
  40208d:	e8 5e ec ff ff       	callq  400cf0 <__errno_location@plt>
  402092:	83 38 04             	cmpl   $0x4,(%rax)
  402095:	75 5c                	jne    4020f3 <rio_read+0x7b>
  402097:	8b 6b 04             	mov    0x4(%rbx),%ebp
  40209a:	85 ed                	test   %ebp,%ebp
  40209c:	7f 24                	jg     4020c2 <rio_read+0x4a>
  40209e:	48 8d 6b 10          	lea    0x10(%rbx),%rbp
  4020a2:	ba 00 20 00 00       	mov    $0x2000,%edx
  4020a7:	48 89 ee             	mov    %rbp,%rsi
  4020aa:	8b 3b                	mov    (%rbx),%edi
  4020ac:	e8 ef ec ff ff       	callq  400da0 <read@plt>
  4020b1:	89 43 04             	mov    %eax,0x4(%rbx)
  4020b4:	85 c0                	test   %eax,%eax
  4020b6:	78 d5                	js     40208d <rio_read+0x15>
  4020b8:	85 c0                	test   %eax,%eax
  4020ba:	74 40                	je     4020fc <rio_read+0x84>
  4020bc:	48 89 6b 08          	mov    %rbp,0x8(%rbx)
  4020c0:	eb d5                	jmp    402097 <rio_read+0x1f>
  4020c2:	89 e8                	mov    %ebp,%eax
  4020c4:	4c 39 e0             	cmp    %r12,%rax
  4020c7:	72 03                	jb     4020cc <rio_read+0x54>
  4020c9:	44 89 e5             	mov    %r12d,%ebp
  4020cc:	4c 63 e5             	movslq %ebp,%r12
  4020cf:	48 8b 73 08          	mov    0x8(%rbx),%rsi
  4020d3:	4c 89 e2             	mov    %r12,%rdx
  4020d6:	4c 89 ef             	mov    %r13,%rdi
  4020d9:	e8 32 ed ff ff       	callq  400e10 <memcpy@plt>
  4020de:	4c 01 63 08          	add    %r12,0x8(%rbx)
  4020e2:	29 6b 04             	sub    %ebp,0x4(%rbx)
  4020e5:	4c 89 e0             	mov    %r12,%rax
  4020e8:	48 83 c4 08          	add    $0x8,%rsp
  4020ec:	5b                   	pop    %rbx
  4020ed:	5d                   	pop    %rbp
  4020ee:	41 5c                	pop    %r12
  4020f0:	41 5d                	pop    %r13
  4020f2:	c3                   	retq   
  4020f3:	48 c7 c0 ff ff ff ff 	mov    $0xffffffffffffffff,%rax
  4020fa:	eb ec                	jmp    4020e8 <rio_read+0x70>
  4020fc:	b8 00 00 00 00       	mov    $0x0,%eax
  402101:	eb e5                	jmp    4020e8 <rio_read+0x70>

0000000000402103 <rio_readlineb>:
  402103:	41 55                	push   %r13
  402105:	41 54                	push   %r12
  402107:	55                   	push   %rbp
  402108:	53                   	push   %rbx
  402109:	48 83 ec 18          	sub    $0x18,%rsp
  40210d:	49 89 fd             	mov    %rdi,%r13
  402110:	48 89 f5             	mov    %rsi,%rbp
  402113:	49 89 d4             	mov    %rdx,%r12
  402116:	bb 01 00 00 00       	mov    $0x1,%ebx
  40211b:	4c 39 e3             	cmp    %r12,%rbx
  40211e:	73 47                	jae    402167 <rio_readlineb+0x64>
  402120:	ba 01 00 00 00       	mov    $0x1,%edx
  402125:	48 8d 74 24 0f       	lea    0xf(%rsp),%rsi
  40212a:	4c 89 ef             	mov    %r13,%rdi
  40212d:	e8 46 ff ff ff       	callq  402078 <rio_read>
  402132:	83 f8 01             	cmp    $0x1,%eax
  402135:	75 1c                	jne    402153 <rio_readlineb+0x50>
  402137:	48 8d 45 01          	lea    0x1(%rbp),%rax
  40213b:	0f b6 54 24 0f       	movzbl 0xf(%rsp),%edx
  402140:	88 55 00             	mov    %dl,0x0(%rbp)
  402143:	80 7c 24 0f 0a       	cmpb   $0xa,0xf(%rsp)
  402148:	74 1a                	je     402164 <rio_readlineb+0x61>
  40214a:	48 83 c3 01          	add    $0x1,%rbx
  40214e:	48 89 c5             	mov    %rax,%rbp
  402151:	eb c8                	jmp    40211b <rio_readlineb+0x18>
  402153:	85 c0                	test   %eax,%eax
  402155:	75 22                	jne    402179 <rio_readlineb+0x76>
  402157:	48 83 fb 01          	cmp    $0x1,%rbx
  40215b:	75 0a                	jne    402167 <rio_readlineb+0x64>
  40215d:	b8 00 00 00 00       	mov    $0x0,%eax
  402162:	eb 0a                	jmp    40216e <rio_readlineb+0x6b>
  402164:	48 89 c5             	mov    %rax,%rbp
  402167:	c6 45 00 00          	movb   $0x0,0x0(%rbp)
  40216b:	48 89 d8             	mov    %rbx,%rax
  40216e:	48 83 c4 18          	add    $0x18,%rsp
  402172:	5b                   	pop    %rbx
  402173:	5d                   	pop    %rbp
  402174:	41 5c                	pop    %r12
  402176:	41 5d                	pop    %r13
  402178:	c3                   	retq   
  402179:	48 c7 c0 ff ff ff ff 	mov    $0xffffffffffffffff,%rax
  402180:	eb ec                	jmp    40216e <rio_readlineb+0x6b>

0000000000402182 <submitr>:
  402182:	41 57                	push   %r15
  402184:	41 56                	push   %r14
  402186:	41 55                	push   %r13
  402188:	41 54                	push   %r12
  40218a:	55                   	push   %rbp
  40218b:	53                   	push   %rbx
  40218c:	48 81 ec 48 a0 00 00 	sub    $0xa048,%rsp
  402193:	49 89 fc             	mov    %rdi,%r12
  402196:	89 74 24 04          	mov    %esi,0x4(%rsp)
  40219a:	49 89 d7             	mov    %rdx,%r15
  40219d:	49 89 ce             	mov    %rcx,%r14
  4021a0:	4c 89 44 24 08       	mov    %r8,0x8(%rsp)
  4021a5:	4d 89 cd             	mov    %r9,%r13
  4021a8:	48 8b ac 24 80 a0 00 	mov    0xa080(%rsp),%rbp
  4021af:	00 
  4021b0:	c7 84 24 1c 20 00 00 	movl   $0x0,0x201c(%rsp)
  4021b7:	00 00 00 00 
  4021bb:	ba 00 00 00 00       	mov    $0x0,%edx
  4021c0:	be 01 00 00 00       	mov    $0x1,%esi
  4021c5:	bf 02 00 00 00       	mov    $0x2,%edi
  4021ca:	e8 21 ed ff ff       	callq  400ef0 <socket@plt>
  4021cf:	85 c0                	test   %eax,%eax
  4021d1:	0f 88 c4 01 00 00    	js     40239b <submitr+0x219>
  4021d7:	89 c3                	mov    %eax,%ebx
  4021d9:	4c 89 e7             	mov    %r12,%rdi
  4021dc:	e8 ef eb ff ff       	callq  400dd0 <gethostbyname@plt>
  4021e1:	48 85 c0             	test   %rax,%rax
  4021e4:	0f 84 00 02 00 00    	je     4023ea <submitr+0x268>
  4021ea:	48 c7 84 24 30 a0 00 	movq   $0x0,0xa030(%rsp)
  4021f1:	00 00 00 00 00 
  4021f6:	48 c7 84 24 38 a0 00 	movq   $0x0,0xa038(%rsp)
  4021fd:	00 00 00 00 00 
  402202:	66 c7 84 24 30 a0 00 	movw   $0x2,0xa030(%rsp)
  402209:	00 02 00 
  40220c:	48 8b 48 18          	mov    0x18(%rax),%rcx
  402210:	48 63 50 14          	movslq 0x14(%rax),%rdx
  402214:	48 8d b4 24 34 a0 00 	lea    0xa034(%rsp),%rsi
  40221b:	00 
  40221c:	48 8b 39             	mov    (%rcx),%rdi
  40221f:	e8 4c ec ff ff       	callq  400e70 <bcopy@plt>
  402224:	0f b7 44 24 04       	movzwl 0x4(%rsp),%eax
  402229:	66 c1 c8 08          	ror    $0x8,%ax
  40222d:	66 89 84 24 32 a0 00 	mov    %ax,0xa032(%rsp)
  402234:	00 
  402235:	ba 10 00 00 00       	mov    $0x10,%edx
  40223a:	48 8d b4 24 30 a0 00 	lea    0xa030(%rsp),%rsi
  402241:	00 
  402242:	89 df                	mov    %ebx,%edi
  402244:	e8 97 ec ff ff       	callq  400ee0 <connect@plt>
  402249:	85 c0                	test   %eax,%eax
  40224b:	0f 88 01 02 00 00    	js     402452 <submitr+0x2d0>
  402251:	48 c7 c6 ff ff ff ff 	mov    $0xffffffffffffffff,%rsi
  402258:	b8 00 00 00 00       	mov    $0x0,%eax
  40225d:	48 89 f1             	mov    %rsi,%rcx
  402260:	4c 89 ef             	mov    %r13,%rdi
  402263:	f2 ae                	repnz scas %es:(%rdi),%al
  402265:	48 89 ca             	mov    %rcx,%rdx
  402268:	48 f7 d2             	not    %rdx
  40226b:	48 89 f1             	mov    %rsi,%rcx
  40226e:	4c 89 ff             	mov    %r15,%rdi
  402271:	f2 ae                	repnz scas %es:(%rdi),%al
  402273:	48 f7 d1             	not    %rcx
  402276:	49 89 c8             	mov    %rcx,%r8
  402279:	48 89 f1             	mov    %rsi,%rcx
  40227c:	4c 89 f7             	mov    %r14,%rdi
  40227f:	f2 ae                	repnz scas %es:(%rdi),%al
  402281:	48 f7 d1             	not    %rcx
  402284:	4d 8d 44 08 fe       	lea    -0x2(%r8,%rcx,1),%r8
  402289:	48 89 f1             	mov    %rsi,%rcx
  40228c:	48 8b 7c 24 08       	mov    0x8(%rsp),%rdi
  402291:	f2 ae                	repnz scas %es:(%rdi),%al
  402293:	48 89 c8             	mov    %rcx,%rax
  402296:	48 f7 d0             	not    %rax
  402299:	49 8d 4c 00 ff       	lea    -0x1(%r8,%rax,1),%rcx
  40229e:	48 8d 44 52 fd       	lea    -0x3(%rdx,%rdx,2),%rax
  4022a3:	48 8d 84 01 80 00 00 	lea    0x80(%rcx,%rax,1),%rax
  4022aa:	00 
  4022ab:	48 3d 00 20 00 00    	cmp    $0x2000,%rax
  4022b1:	0f 87 f5 01 00 00    	ja     4024ac <submitr+0x32a>
  4022b7:	48 8d b4 24 20 40 00 	lea    0x4020(%rsp),%rsi
  4022be:	00 
  4022bf:	b9 00 04 00 00       	mov    $0x400,%ecx
  4022c4:	b8 00 00 00 00       	mov    $0x0,%eax
  4022c9:	48 89 f7             	mov    %rsi,%rdi
  4022cc:	f3 48 ab             	rep stos %rax,%es:(%rdi)
  4022cf:	4c 89 ef             	mov    %r13,%rdi
  4022d2:	e8 68 fc ff ff       	callq  401f3f <urlencode>
  4022d7:	85 c0                	test   %eax,%eax
  4022d9:	0f 88 40 02 00 00    	js     40251f <submitr+0x39d>
  4022df:	4c 8d ac 24 20 60 00 	lea    0x6020(%rsp),%r13
  4022e6:	00 
  4022e7:	4d 89 e1             	mov    %r12,%r9
  4022ea:	4c 8d 84 24 20 40 00 	lea    0x4020(%rsp),%r8
  4022f1:	00 
  4022f2:	4c 89 f9             	mov    %r15,%rcx
  4022f5:	4c 89 f2             	mov    %r14,%rdx
  4022f8:	be 18 34 40 00       	mov    $0x403418,%esi
  4022fd:	4c 89 ef             	mov    %r13,%rdi
  402300:	b8 00 00 00 00       	mov    $0x0,%eax
  402305:	e8 b6 eb ff ff       	callq  400ec0 <sprintf@plt>
  40230a:	48 c7 c1 ff ff ff ff 	mov    $0xffffffffffffffff,%rcx
  402311:	b8 00 00 00 00       	mov    $0x0,%eax
  402316:	4c 89 ef             	mov    %r13,%rdi
  402319:	f2 ae                	repnz scas %es:(%rdi),%al
  40231b:	48 89 ca             	mov    %rcx,%rdx
  40231e:	48 f7 d2             	not    %rdx
  402321:	48 8d 52 ff          	lea    -0x1(%rdx),%rdx
  402325:	4c 89 ee             	mov    %r13,%rsi
  402328:	89 df                	mov    %ebx,%edi
  40232a:	e8 eb fc ff ff       	callq  40201a <rio_writen>
  40232f:	48 85 c0             	test   %rax,%rax
  402332:	0f 88 72 02 00 00    	js     4025aa <submitr+0x428>
  402338:	89 de                	mov    %ebx,%esi
  40233a:	48 8d bc 24 20 80 00 	lea    0x8020(%rsp),%rdi
  402341:	00 
  402342:	e8 bd fb ff ff       	callq  401f04 <rio_readinitb>
  402347:	ba 00 20 00 00       	mov    $0x2000,%edx
  40234c:	48 8d b4 24 20 60 00 	lea    0x6020(%rsp),%rsi
  402353:	00 
  402354:	48 8d bc 24 20 80 00 	lea    0x8020(%rsp),%rdi
  40235b:	00 
  40235c:	e8 a2 fd ff ff       	callq  402103 <rio_readlineb>
  402361:	48 85 c0             	test   %rax,%rax
  402364:	0f 8e af 02 00 00    	jle    402619 <submitr+0x497>
  40236a:	4c 8d 44 24 10       	lea    0x10(%rsp),%r8
  40236f:	48 8d 8c 24 1c 20 00 	lea    0x201c(%rsp),%rcx
  402376:	00 
  402377:	48 8d 94 24 20 20 00 	lea    0x2020(%rsp),%rdx
  40237e:	00 
  40237f:	be 8f 34 40 00       	mov    $0x40348f,%esi
  402384:	48 8d bc 24 20 60 00 	lea    0x6020(%rsp),%rdi
  40238b:	00 
  40238c:	b8 00 00 00 00       	mov    $0x0,%eax
  402391:	e8 ba ea ff ff       	callq  400e50 <__isoc99_sscanf@plt>
  402396:	e9 a7 03 00 00       	jmpq   402742 <submitr+0x5c0>
  40239b:	48 b8 45 72 72 6f 72 	movabs $0x43203a726f727245,%rax
  4023a2:	3a 20 43 
  4023a5:	48 ba 6c 69 65 6e 74 	movabs $0x6e7520746e65696c,%rdx
  4023ac:	20 75 6e 
  4023af:	48 89 45 00          	mov    %rax,0x0(%rbp)
  4023b3:	48 89 55 08          	mov    %rdx,0x8(%rbp)
  4023b7:	48 b8 61 62 6c 65 20 	movabs $0x206f7420656c6261,%rax
  4023be:	74 6f 20 
  4023c1:	48 ba 63 72 65 61 74 	movabs $0x7320657461657263,%rdx
  4023c8:	65 20 73 
  4023cb:	48 89 45 10          	mov    %rax,0x10(%rbp)
  4023cf:	48 89 55 18          	mov    %rdx,0x18(%rbp)
  4023d3:	c7 45 20 6f 63 6b 65 	movl   $0x656b636f,0x20(%rbp)
  4023da:	66 c7 45 24 74 00    	movw   $0x74,0x24(%rbp)
  4023e0:	b8 ff ff ff ff       	mov    $0xffffffff,%eax
  4023e5:	e9 1f 03 00 00       	jmpq   402709 <submitr+0x587>
  4023ea:	48 b8 45 72 72 6f 72 	movabs $0x44203a726f727245,%rax
  4023f1:	3a 20 44 
  4023f4:	48 ba 4e 53 20 69 73 	movabs $0x6e7520736920534e,%rdx
  4023fb:	20 75 6e 
  4023fe:	48 89 45 00          	mov    %rax,0x0(%rbp)
  402402:	48 89 55 08          	mov    %rdx,0x8(%rbp)
  402406:	48 b8 61 62 6c 65 20 	movabs $0x206f7420656c6261,%rax
  40240d:	74 6f 20 
  402410:	48 ba 72 65 73 6f 6c 	movabs $0x2065766c6f736572,%rdx
  402417:	76 65 20 
  40241a:	48 89 45 10          	mov    %rax,0x10(%rbp)
  40241e:	48 89 55 18          	mov    %rdx,0x18(%rbp)
  402422:	48 b8 73 65 72 76 65 	movabs $0x6120726576726573,%rax
  402429:	72 20 61 
  40242c:	48 89 45 20          	mov    %rax,0x20(%rbp)
  402430:	c7 45 28 64 64 72 65 	movl   $0x65726464,0x28(%rbp)
  402437:	66 c7 45 2c 73 73    	movw   $0x7373,0x2c(%rbp)
  40243d:	c6 45 2e 00          	movb   $0x0,0x2e(%rbp)
  402441:	89 df                	mov    %ebx,%edi
  402443:	e8 48 e9 ff ff       	callq  400d90 <close@plt>
  402448:	b8 ff ff ff ff       	mov    $0xffffffff,%eax
  40244d:	e9 b7 02 00 00       	jmpq   402709 <submitr+0x587>
  402452:	48 b8 45 72 72 6f 72 	movabs $0x55203a726f727245,%rax
  402459:	3a 20 55 
  40245c:	48 ba 6e 61 62 6c 65 	movabs $0x6f7420656c62616e,%rdx
  402463:	20 74 6f 
  402466:	48 89 45 00          	mov    %rax,0x0(%rbp)
  40246a:	48 89 55 08          	mov    %rdx,0x8(%rbp)
  40246e:	48 b8 20 63 6f 6e 6e 	movabs $0x7463656e6e6f6320,%rax
  402475:	65 63 74 
  402478:	48 ba 20 74 6f 20 74 	movabs $0x20656874206f7420,%rdx
  40247f:	68 65 20 
  402482:	48 89 45 10          	mov    %rax,0x10(%rbp)
  402486:	48 89 55 18          	mov    %rdx,0x18(%rbp)
  40248a:	c7 45 20 73 65 72 76 	movl   $0x76726573,0x20(%rbp)
  402491:	66 c7 45 24 65 72    	movw   $0x7265,0x24(%rbp)
  402497:	c6 45 26 00          	movb   $0x0,0x26(%rbp)
  40249b:	89 df                	mov    %ebx,%edi
  40249d:	e8 ee e8 ff ff       	callq  400d90 <close@plt>
  4024a2:	b8 ff ff ff ff       	mov    $0xffffffff,%eax
  4024a7:	e9 5d 02 00 00       	jmpq   402709 <submitr+0x587>
  4024ac:	48 b8 45 72 72 6f 72 	movabs $0x52203a726f727245,%rax
  4024b3:	3a 20 52 
  4024b6:	48 ba 65 73 75 6c 74 	movabs $0x747320746c757365,%rdx
  4024bd:	20 73 74 
  4024c0:	48 89 45 00          	mov    %rax,0x0(%rbp)
  4024c4:	48 89 55 08          	mov    %rdx,0x8(%rbp)
  4024c8:	48 b8 72 69 6e 67 20 	movabs $0x6f6f7420676e6972,%rax
  4024cf:	74 6f 6f 
  4024d2:	48 ba 20 6c 61 72 67 	movabs $0x202e656772616c20,%rdx
  4024d9:	65 2e 20 
  4024dc:	48 89 45 10          	mov    %rax,0x10(%rbp)
  4024e0:	48 89 55 18          	mov    %rdx,0x18(%rbp)
  4024e4:	48 b8 49 6e 63 72 65 	movabs $0x6573616572636e49,%rax
  4024eb:	61 73 65 
  4024ee:	48 ba 20 53 55 42 4d 	movabs $0x5254494d42555320,%rdx
  4024f5:	49 54 52 
  4024f8:	48 89 45 20          	mov    %rax,0x20(%rbp)
  4024fc:	48 89 55 28          	mov    %rdx,0x28(%rbp)
  402500:	48 b8 5f 4d 41 58 42 	movabs $0x46554258414d5f,%rax
  402507:	55 46 00 
  40250a:	48 89 45 30          	mov    %rax,0x30(%rbp)
  40250e:	89 df                	mov    %ebx,%edi
  402510:	e8 7b e8 ff ff       	callq  400d90 <close@plt>
  402515:	b8 ff ff ff ff       	mov    $0xffffffff,%eax
  40251a:	e9 ea 01 00 00       	jmpq   402709 <submitr+0x587>
  40251f:	48 b8 45 72 72 6f 72 	movabs $0x52203a726f727245,%rax
  402526:	3a 20 52 
  402529:	48 ba 65 73 75 6c 74 	movabs $0x747320746c757365,%rdx
  402530:	20 73 74 
  402533:	48 89 45 00          	mov    %rax,0x0(%rbp)
  402537:	48 89 55 08          	mov    %rdx,0x8(%rbp)
  40253b:	48 b8 72 69 6e 67 20 	movabs $0x6e6f6320676e6972,%rax
  402542:	63 6f 6e 
  402545:	48 ba 74 61 69 6e 73 	movabs $0x6e6120736e696174,%rdx
  40254c:	20 61 6e 
  40254f:	48 89 45 10          	mov    %rax,0x10(%rbp)
  402553:	48 89 55 18          	mov    %rdx,0x18(%rbp)
  402557:	48 b8 20 69 6c 6c 65 	movabs $0x6c6167656c6c6920,%rax
  40255e:	67 61 6c 
  402561:	48 ba 20 6f 72 20 75 	movabs $0x72706e7520726f20,%rdx
  402568:	6e 70 72 
  40256b:	48 89 45 20          	mov    %rax,0x20(%rbp)
  40256f:	48 89 55 28          	mov    %rdx,0x28(%rbp)
  402573:	48 b8 69 6e 74 61 62 	movabs $0x20656c6261746e69,%rax
  40257a:	6c 65 20 
  40257d:	48 ba 63 68 61 72 61 	movabs $0x6574636172616863,%rdx
  402584:	63 74 65 
  402587:	48 89 45 30          	mov    %rax,0x30(%rbp)
  40258b:	48 89 55 38          	mov    %rdx,0x38(%rbp)
  40258f:	66 c7 45 40 72 2e    	movw   $0x2e72,0x40(%rbp)
  402595:	c6 45 42 00          	movb   $0x0,0x42(%rbp)
  402599:	89 df                	mov    %ebx,%edi
  40259b:	e8 f0 e7 ff ff       	callq  400d90 <close@plt>
  4025a0:	b8 ff ff ff ff       	mov    $0xffffffff,%eax
  4025a5:	e9 5f 01 00 00       	jmpq   402709 <submitr+0x587>
  4025aa:	48 b8 45 72 72 6f 72 	movabs $0x43203a726f727245,%rax
  4025b1:	3a 20 43 
  4025b4:	48 ba 6c 69 65 6e 74 	movabs $0x6e7520746e65696c,%rdx
  4025bb:	20 75 6e 
  4025be:	48 89 45 00          	mov    %rax,0x0(%rbp)
  4025c2:	48 89 55 08          	mov    %rdx,0x8(%rbp)
  4025c6:	48 b8 61 62 6c 65 20 	movabs $0x206f7420656c6261,%rax
  4025cd:	74 6f 20 
  4025d0:	48 ba 77 72 69 74 65 	movabs $0x6f74206574697277,%rdx
  4025d7:	20 74 6f 
  4025da:	48 89 45 10          	mov    %rax,0x10(%rbp)
  4025de:	48 89 55 18          	mov    %rdx,0x18(%rbp)
  4025e2:	48 b8 20 74 68 65 20 	movabs $0x7365722065687420,%rax
  4025e9:	72 65 73 
  4025ec:	48 ba 75 6c 74 20 73 	movabs $0x7672657320746c75,%rdx
  4025f3:	65 72 76 
  4025f6:	48 89 45 20          	mov    %rax,0x20(%rbp)
  4025fa:	48 89 55 28          	mov    %rdx,0x28(%rbp)
  4025fe:	66 c7 45 30 65 72    	movw   $0x7265,0x30(%rbp)
  402604:	c6 45 32 00          	movb   $0x0,0x32(%rbp)
  402608:	89 df                	mov    %ebx,%edi
  40260a:	e8 81 e7 ff ff       	callq  400d90 <close@plt>
  40260f:	b8 ff ff ff ff       	mov    $0xffffffff,%eax
  402614:	e9 f0 00 00 00       	jmpq   402709 <submitr+0x587>
  402619:	48 b8 45 72 72 6f 72 	movabs $0x43203a726f727245,%rax
  402620:	3a 20 43 
  402623:	48 ba 6c 69 65 6e 74 	movabs $0x6e7520746e65696c,%rdx
  40262a:	20 75 6e 
  40262d:	48 89 45 00          	mov    %rax,0x0(%rbp)
  402631:	48 89 55 08          	mov    %rdx,0x8(%rbp)
  402635:	48 b8 61 62 6c 65 20 	movabs $0x206f7420656c6261,%rax
  40263c:	74 6f 20 
  40263f:	48 ba 72 65 61 64 20 	movabs $0x7269662064616572,%rdx
  402646:	66 69 72 
  402649:	48 89 45 10          	mov    %rax,0x10(%rbp)
  40264d:	48 89 55 18          	mov    %rdx,0x18(%rbp)
  402651:	48 b8 73 74 20 68 65 	movabs $0x6564616568207473,%rax
  402658:	61 64 65 
  40265b:	48 ba 72 20 66 72 6f 	movabs $0x72206d6f72662072,%rdx
  402662:	6d 20 72 
  402665:	48 89 45 20          	mov    %rax,0x20(%rbp)
  402669:	48 89 55 28          	mov    %rdx,0x28(%rbp)
  40266d:	48 b8 65 73 75 6c 74 	movabs $0x657320746c757365,%rax
  402674:	20 73 65 
  402677:	48 89 45 30          	mov    %rax,0x30(%rbp)
  40267b:	c7 45 38 72 76 65 72 	movl   $0x72657672,0x38(%rbp)
  402682:	c6 45 3c 00          	movb   $0x0,0x3c(%rbp)
  402686:	89 df                	mov    %ebx,%edi
  402688:	e8 03 e7 ff ff       	callq  400d90 <close@plt>
  40268d:	b8 ff ff ff ff       	mov    $0xffffffff,%eax
  402692:	eb 75                	jmp    402709 <submitr+0x587>
  402694:	48 b8 45 72 72 6f 72 	movabs $0x43203a726f727245,%rax
  40269b:	3a 20 43 
  40269e:	48 ba 6c 69 65 6e 74 	movabs $0x6e7520746e65696c,%rdx
  4026a5:	20 75 6e 
  4026a8:	48 89 45 00          	mov    %rax,0x0(%rbp)
  4026ac:	48 89 55 08          	mov    %rdx,0x8(%rbp)
  4026b0:	48 b8 61 62 6c 65 20 	movabs $0x206f7420656c6261,%rax
  4026b7:	74 6f 20 
  4026ba:	48 ba 72 65 61 64 20 	movabs $0x6165682064616572,%rdx
  4026c1:	68 65 61 
  4026c4:	48 89 45 10          	mov    %rax,0x10(%rbp)
  4026c8:	48 89 55 18          	mov    %rdx,0x18(%rbp)
  4026cc:	48 b8 64 65 72 73 20 	movabs $0x6f72662073726564,%rax
  4026d3:	66 72 6f 
  4026d6:	48 ba 6d 20 74 68 65 	movabs $0x657220656874206d,%rdx
  4026dd:	20 72 65 
  4026e0:	48 89 45 20          	mov    %rax,0x20(%rbp)
  4026e4:	48 89 55 28          	mov    %rdx,0x28(%rbp)
  4026e8:	48 b8 73 75 6c 74 20 	movabs $0x72657320746c7573,%rax
  4026ef:	73 65 72 
  4026f2:	48 89 45 30          	mov    %rax,0x30(%rbp)
  4026f6:	c7 45 38 76 65 72 00 	movl   $0x726576,0x38(%rbp)
  4026fd:	89 df                	mov    %ebx,%edi
  4026ff:	e8 8c e6 ff ff       	callq  400d90 <close@plt>
  402704:	b8 ff ff ff ff       	mov    $0xffffffff,%eax
  402709:	48 81 c4 48 a0 00 00 	add    $0xa048,%rsp
  402710:	5b                   	pop    %rbx
  402711:	5d                   	pop    %rbp
  402712:	41 5c                	pop    %r12
  402714:	41 5d                	pop    %r13
  402716:	41 5e                	pop    %r14
  402718:	41 5f                	pop    %r15
  40271a:	c3                   	retq   
  40271b:	85 c0                	test   %eax,%eax
  40271d:	74 47                	je     402766 <submitr+0x5e4>
  40271f:	ba 00 20 00 00       	mov    $0x2000,%edx
  402724:	48 8d b4 24 20 60 00 	lea    0x6020(%rsp),%rsi
  40272b:	00 
  40272c:	48 8d bc 24 20 80 00 	lea    0x8020(%rsp),%rdi
  402733:	00 
  402734:	e8 ca f9 ff ff       	callq  402103 <rio_readlineb>
  402739:	48 85 c0             	test   %rax,%rax
  40273c:	0f 8e 52 ff ff ff    	jle    402694 <submitr+0x512>
  402742:	0f b6 84 24 20 60 00 	movzbl 0x6020(%rsp),%eax
  402749:	00 
  40274a:	83 e8 0d             	sub    $0xd,%eax
  40274d:	75 cc                	jne    40271b <submitr+0x599>
  40274f:	0f b6 84 24 21 60 00 	movzbl 0x6021(%rsp),%eax
  402756:	00 
  402757:	83 e8 0a             	sub    $0xa,%eax
  40275a:	75 bf                	jne    40271b <submitr+0x599>
  40275c:	0f b6 84 24 22 60 00 	movzbl 0x6022(%rsp),%eax
  402763:	00 
  402764:	eb b5                	jmp    40271b <submitr+0x599>
  402766:	ba 00 20 00 00       	mov    $0x2000,%edx
  40276b:	48 8d b4 24 20 60 00 	lea    0x6020(%rsp),%rsi
  402772:	00 
  402773:	48 8d bc 24 20 80 00 	lea    0x8020(%rsp),%rdi
  40277a:	00 
  40277b:	e8 83 f9 ff ff       	callq  402103 <rio_readlineb>
  402780:	48 85 c0             	test   %rax,%rax
  402783:	0f 8e 97 00 00 00    	jle    402820 <submitr+0x69e>
  402789:	8b 94 24 1c 20 00 00 	mov    0x201c(%rsp),%edx
  402790:	81 fa c8 00 00 00    	cmp    $0xc8,%edx
  402796:	0f 85 08 01 00 00    	jne    4028a4 <submitr+0x722>
  40279c:	48 8d b4 24 20 60 00 	lea    0x6020(%rsp),%rsi
  4027a3:	00 
  4027a4:	48 89 ef             	mov    %rbp,%rdi
  4027a7:	e8 74 e5 ff ff       	callq  400d20 <strcpy@plt>
  4027ac:	89 df                	mov    %ebx,%edi
  4027ae:	e8 dd e5 ff ff       	callq  400d90 <close@plt>
  4027b3:	0f b6 45 00          	movzbl 0x0(%rbp),%eax
  4027b7:	83 e8 4f             	sub    $0x4f,%eax
  4027ba:	89 c2                	mov    %eax,%edx
  4027bc:	75 16                	jne    4027d4 <submitr+0x652>
  4027be:	0f b6 45 01          	movzbl 0x1(%rbp),%eax
  4027c2:	83 e8 4b             	sub    $0x4b,%eax
  4027c5:	75 0d                	jne    4027d4 <submitr+0x652>
  4027c7:	0f b6 45 02          	movzbl 0x2(%rbp),%eax
  4027cb:	83 e8 0a             	sub    $0xa,%eax
  4027ce:	75 04                	jne    4027d4 <submitr+0x652>
  4027d0:	0f b6 45 03          	movzbl 0x3(%rbp),%eax
  4027d4:	85 c0                	test   %eax,%eax
  4027d6:	0f 84 2d ff ff ff    	je     402709 <submitr+0x587>
  4027dc:	bf a0 34 40 00       	mov    $0x4034a0,%edi
  4027e1:	b9 05 00 00 00       	mov    $0x5,%ecx
  4027e6:	48 89 ee             	mov    %rbp,%rsi
  4027e9:	f3 a6                	repz cmpsb %es:(%rdi),%ds:(%rsi)
  4027eb:	0f 97 c0             	seta   %al
  4027ee:	0f 92 c1             	setb   %cl
  4027f1:	29 c8                	sub    %ecx,%eax
  4027f3:	0f be c0             	movsbl %al,%eax
  4027f6:	85 c0                	test   %eax,%eax
  4027f8:	0f 84 0b ff ff ff    	je     402709 <submitr+0x587>
  4027fe:	85 d2                	test   %edx,%edx
  402800:	75 0f                	jne    402811 <submitr+0x68f>
  402802:	0f b6 45 01          	movzbl 0x1(%rbp),%eax
  402806:	83 e8 4b             	sub    $0x4b,%eax
  402809:	89 c2                	mov    %eax,%edx
  40280b:	75 04                	jne    402811 <submitr+0x68f>
  40280d:	0f b6 55 02          	movzbl 0x2(%rbp),%edx
  402811:	85 d2                	test   %edx,%edx
  402813:	0f 85 b3 00 00 00    	jne    4028cc <submitr+0x74a>
  402819:	89 d0                	mov    %edx,%eax
  40281b:	e9 e9 fe ff ff       	jmpq   402709 <submitr+0x587>
  402820:	48 b8 45 72 72 6f 72 	movabs $0x43203a726f727245,%rax
  402827:	3a 20 43 
  40282a:	48 ba 6c 69 65 6e 74 	movabs $0x6e7520746e65696c,%rdx
  402831:	20 75 6e 
  402834:	48 89 45 00          	mov    %rax,0x0(%rbp)
  402838:	48 89 55 08          	mov    %rdx,0x8(%rbp)
  40283c:	48 b8 61 62 6c 65 20 	movabs $0x206f7420656c6261,%rax
  402843:	74 6f 20 
  402846:	48 ba 72 65 61 64 20 	movabs $0x6174732064616572,%rdx
  40284d:	73 74 61 
  402850:	48 89 45 10          	mov    %rax,0x10(%rbp)
  402854:	48 89 55 18          	mov    %rdx,0x18(%rbp)
  402858:	48 b8 74 75 73 20 6d 	movabs $0x7373656d20737574,%rax
  40285f:	65 73 73 
  402862:	48 ba 61 67 65 20 66 	movabs $0x6d6f726620656761,%rdx
  402869:	72 6f 6d 
  40286c:	48 89 45 20          	mov    %rax,0x20(%rbp)
  402870:	48 89 55 28          	mov    %rdx,0x28(%rbp)
  402874:	48 b8 20 72 65 73 75 	movabs $0x20746c7573657220,%rax
  40287b:	6c 74 20 
  40287e:	48 89 45 30          	mov    %rax,0x30(%rbp)
  402882:	c7 45 38 73 65 72 76 	movl   $0x76726573,0x38(%rbp)
  402889:	66 c7 45 3c 65 72    	movw   $0x7265,0x3c(%rbp)
  40288f:	c6 45 3e 00          	movb   $0x0,0x3e(%rbp)
  402893:	89 df                	mov    %ebx,%edi
  402895:	e8 f6 e4 ff ff       	callq  400d90 <close@plt>
  40289a:	b8 ff ff ff ff       	mov    $0xffffffff,%eax
  40289f:	e9 65 fe ff ff       	jmpq   402709 <submitr+0x587>
  4028a4:	48 8d 4c 24 10       	lea    0x10(%rsp),%rcx
  4028a9:	be 58 34 40 00       	mov    $0x403458,%esi
  4028ae:	48 89 ef             	mov    %rbp,%rdi
  4028b1:	b8 00 00 00 00       	mov    $0x0,%eax
  4028b6:	e8 05 e6 ff ff       	callq  400ec0 <sprintf@plt>
  4028bb:	89 df                	mov    %ebx,%edi
  4028bd:	e8 ce e4 ff ff       	callq  400d90 <close@plt>
  4028c2:	b8 ff ff ff ff       	mov    $0xffffffff,%eax
  4028c7:	e9 3d fe ff ff       	jmpq   402709 <submitr+0x587>
  4028cc:	b8 ff ff ff ff       	mov    $0xffffffff,%eax
  4028d1:	e9 33 fe ff ff       	jmpq   402709 <submitr+0x587>

00000000004028d6 <init_timeout>:
  4028d6:	85 ff                	test   %edi,%edi
  4028d8:	74 26                	je     402900 <init_timeout+0x2a>
  4028da:	53                   	push   %rbx
  4028db:	89 fb                	mov    %edi,%ebx
  4028dd:	85 ff                	test   %edi,%edi
  4028df:	78 18                	js     4028f9 <init_timeout+0x23>
  4028e1:	be 16 1f 40 00       	mov    $0x401f16,%esi
  4028e6:	bf 0e 00 00 00       	mov    $0xe,%edi
  4028eb:	e8 d0 e4 ff ff       	callq  400dc0 <signal@plt>
  4028f0:	89 df                	mov    %ebx,%edi
  4028f2:	e8 89 e4 ff ff       	callq  400d80 <alarm@plt>
  4028f7:	5b                   	pop    %rbx
  4028f8:	c3                   	retq   
  4028f9:	bb 00 00 00 00       	mov    $0x0,%ebx
  4028fe:	eb e1                	jmp    4028e1 <init_timeout+0xb>
  402900:	f3 c3                	repz retq 

0000000000402902 <init_driver>:
  402902:	55                   	push   %rbp
  402903:	53                   	push   %rbx
  402904:	48 83 ec 18          	sub    $0x18,%rsp
  402908:	48 89 fd             	mov    %rdi,%rbp
  40290b:	be 01 00 00 00       	mov    $0x1,%esi
  402910:	bf 0d 00 00 00       	mov    $0xd,%edi
  402915:	e8 a6 e4 ff ff       	callq  400dc0 <signal@plt>
  40291a:	be 01 00 00 00       	mov    $0x1,%esi
  40291f:	bf 1d 00 00 00       	mov    $0x1d,%edi
  402924:	e8 97 e4 ff ff       	callq  400dc0 <signal@plt>
  402929:	be 01 00 00 00       	mov    $0x1,%esi
  40292e:	bf 1d 00 00 00       	mov    $0x1d,%edi
  402933:	e8 88 e4 ff ff       	callq  400dc0 <signal@plt>
  402938:	ba 00 00 00 00       	mov    $0x0,%edx
  40293d:	be 01 00 00 00       	mov    $0x1,%esi
  402942:	bf 02 00 00 00       	mov    $0x2,%edi
  402947:	e8 a4 e5 ff ff       	callq  400ef0 <socket@plt>
  40294c:	85 c0                	test   %eax,%eax
  40294e:	78 7c                	js     4029cc <init_driver+0xca>
  402950:	89 c3                	mov    %eax,%ebx
  402952:	bf 99 2f 40 00       	mov    $0x402f99,%edi
  402957:	e8 74 e4 ff ff       	callq  400dd0 <gethostbyname@plt>
  40295c:	48 85 c0             	test   %rax,%rax
  40295f:	0f 84 b3 00 00 00    	je     402a18 <init_driver+0x116>
  402965:	48 c7 04 24 00 00 00 	movq   $0x0,(%rsp)
  40296c:	00 
  40296d:	48 c7 44 24 08 00 00 	movq   $0x0,0x8(%rsp)
  402974:	00 00 
  402976:	66 c7 04 24 02 00    	movw   $0x2,(%rsp)
  40297c:	48 8b 48 18          	mov    0x18(%rax),%rcx
  402980:	48 63 50 14          	movslq 0x14(%rax),%rdx
  402984:	48 8d 74 24 04       	lea    0x4(%rsp),%rsi
  402989:	48 8b 39             	mov    (%rcx),%rdi
  40298c:	e8 df e4 ff ff       	callq  400e70 <bcopy@plt>
  402991:	66 c7 44 24 02 47 26 	movw   $0x2647,0x2(%rsp)
  402998:	ba 10 00 00 00       	mov    $0x10,%edx
  40299d:	48 89 e6             	mov    %rsp,%rsi
  4029a0:	89 df                	mov    %ebx,%edi
  4029a2:	e8 39 e5 ff ff       	callq  400ee0 <connect@plt>
  4029a7:	85 c0                	test   %eax,%eax
  4029a9:	0f 88 d1 00 00 00    	js     402a80 <init_driver+0x17e>
  4029af:	89 df                	mov    %ebx,%edi
  4029b1:	e8 da e3 ff ff       	callq  400d90 <close@plt>
  4029b6:	66 c7 45 00 4f 4b    	movw   $0x4b4f,0x0(%rbp)
  4029bc:	c6 45 02 00          	movb   $0x0,0x2(%rbp)
  4029c0:	b8 00 00 00 00       	mov    $0x0,%eax
  4029c5:	48 83 c4 18          	add    $0x18,%rsp
  4029c9:	5b                   	pop    %rbx
  4029ca:	5d                   	pop    %rbp
  4029cb:	c3                   	retq   
  4029cc:	48 b8 45 72 72 6f 72 	movabs $0x43203a726f727245,%rax
  4029d3:	3a 20 43 
  4029d6:	48 ba 6c 69 65 6e 74 	movabs $0x6e7520746e65696c,%rdx
  4029dd:	20 75 6e 
  4029e0:	48 89 45 00          	mov    %rax,0x0(%rbp)
  4029e4:	48 89 55 08          	mov    %rdx,0x8(%rbp)
  4029e8:	48 b8 61 62 6c 65 20 	movabs $0x206f7420656c6261,%rax
  4029ef:	74 6f 20 
  4029f2:	48 ba 63 72 65 61 74 	movabs $0x7320657461657263,%rdx
  4029f9:	65 20 73 
  4029fc:	48 89 45 10          	mov    %rax,0x10(%rbp)
  402a00:	48 89 55 18          	mov    %rdx,0x18(%rbp)
  402a04:	c7 45 20 6f 63 6b 65 	movl   $0x656b636f,0x20(%rbp)
  402a0b:	66 c7 45 24 74 00    	movw   $0x74,0x24(%rbp)
  402a11:	b8 ff ff ff ff       	mov    $0xffffffff,%eax
  402a16:	eb ad                	jmp    4029c5 <init_driver+0xc3>
  402a18:	48 b8 45 72 72 6f 72 	movabs $0x44203a726f727245,%rax
  402a1f:	3a 20 44 
  402a22:	48 ba 4e 53 20 69 73 	movabs $0x6e7520736920534e,%rdx
  402a29:	20 75 6e 
  402a2c:	48 89 45 00          	mov    %rax,0x0(%rbp)
  402a30:	48 89 55 08          	mov    %rdx,0x8(%rbp)
  402a34:	48 b8 61 62 6c 65 20 	movabs $0x206f7420656c6261,%rax
  402a3b:	74 6f 20 
  402a3e:	48 ba 72 65 73 6f 6c 	movabs $0x2065766c6f736572,%rdx
  402a45:	76 65 20 
  402a48:	48 89 45 10          	mov    %rax,0x10(%rbp)
  402a4c:	48 89 55 18          	mov    %rdx,0x18(%rbp)
  402a50:	48 b8 73 65 72 76 65 	movabs $0x6120726576726573,%rax
  402a57:	72 20 61 
  402a5a:	48 89 45 20          	mov    %rax,0x20(%rbp)
  402a5e:	c7 45 28 64 64 72 65 	movl   $0x65726464,0x28(%rbp)
  402a65:	66 c7 45 2c 73 73    	movw   $0x7373,0x2c(%rbp)
  402a6b:	c6 45 2e 00          	movb   $0x0,0x2e(%rbp)
  402a6f:	89 df                	mov    %ebx,%edi
  402a71:	e8 1a e3 ff ff       	callq  400d90 <close@plt>
  402a76:	b8 ff ff ff ff       	mov    $0xffffffff,%eax
  402a7b:	e9 45 ff ff ff       	jmpq   4029c5 <init_driver+0xc3>
  402a80:	48 b8 45 72 72 6f 72 	movabs $0x55203a726f727245,%rax
  402a87:	3a 20 55 
  402a8a:	48 ba 6e 61 62 6c 65 	movabs $0x6f7420656c62616e,%rdx
  402a91:	20 74 6f 
  402a94:	48 89 45 00          	mov    %rax,0x0(%rbp)
  402a98:	48 89 55 08          	mov    %rdx,0x8(%rbp)
  402a9c:	48 b8 20 63 6f 6e 6e 	movabs $0x7463656e6e6f6320,%rax
  402aa3:	65 63 74 
  402aa6:	48 ba 20 74 6f 20 73 	movabs $0x76726573206f7420,%rdx
  402aad:	65 72 76 
  402ab0:	48 89 45 10          	mov    %rax,0x10(%rbp)
  402ab4:	48 89 55 18          	mov    %rdx,0x18(%rbp)
  402ab8:	66 c7 45 20 65 72    	movw   $0x7265,0x20(%rbp)
  402abe:	c6 45 22 00          	movb   $0x0,0x22(%rbp)
  402ac2:	89 df                	mov    %ebx,%edi
  402ac4:	e8 c7 e2 ff ff       	callq  400d90 <close@plt>
  402ac9:	b8 ff ff ff ff       	mov    $0xffffffff,%eax
  402ace:	e9 f2 fe ff ff       	jmpq   4029c5 <init_driver+0xc3>

0000000000402ad3 <driver_post>:
  402ad3:	53                   	push   %rbx
  402ad4:	4c 89 cb             	mov    %r9,%rbx
  402ad7:	45 85 c0             	test   %r8d,%r8d
  402ada:	75 18                	jne    402af4 <driver_post+0x21>
  402adc:	48 85 ff             	test   %rdi,%rdi
  402adf:	74 05                	je     402ae6 <driver_post+0x13>
  402ae1:	80 3f 00             	cmpb   $0x0,(%rdi)
  402ae4:	75 30                	jne    402b16 <driver_post+0x43>
  402ae6:	66 c7 03 4f 4b       	movw   $0x4b4f,(%rbx)
  402aeb:	c6 43 02 00          	movb   $0x0,0x2(%rbx)
  402aef:	44 89 c0             	mov    %r8d,%eax
  402af2:	5b                   	pop    %rbx
  402af3:	c3                   	retq   
  402af4:	48 89 ce             	mov    %rcx,%rsi
  402af7:	bf a5 34 40 00       	mov    $0x4034a5,%edi
  402afc:	b8 00 00 00 00       	mov    $0x0,%eax
  402b01:	e8 5a e2 ff ff       	callq  400d60 <printf@plt>
  402b06:	66 c7 03 4f 4b       	movw   $0x4b4f,(%rbx)
  402b0b:	c6 43 02 00          	movb   $0x0,0x2(%rbx)
  402b0f:	b8 00 00 00 00       	mov    $0x0,%eax
  402b14:	eb dc                	jmp    402af2 <driver_post+0x1f>
  402b16:	48 83 ec 08          	sub    $0x8,%rsp
  402b1a:	41 51                	push   %r9
  402b1c:	49 89 c9             	mov    %rcx,%r9
  402b1f:	49 89 d0             	mov    %rdx,%r8
  402b22:	48 89 f9             	mov    %rdi,%rcx
  402b25:	48 89 f2             	mov    %rsi,%rdx
  402b28:	be 26 47 00 00       	mov    $0x4726,%esi
  402b2d:	bf 99 2f 40 00       	mov    $0x402f99,%edi
  402b32:	e8 4b f6 ff ff       	callq  402182 <submitr>
  402b37:	48 83 c4 10          	add    $0x10,%rsp
  402b3b:	eb b5                	jmp    402af2 <driver_post+0x1f>

0000000000402b3d <check>:
  402b3d:	89 f8                	mov    %edi,%eax
  402b3f:	c1 e8 1c             	shr    $0x1c,%eax
  402b42:	85 c0                	test   %eax,%eax
  402b44:	74 1d                	je     402b63 <check+0x26>
  402b46:	b9 00 00 00 00       	mov    $0x0,%ecx
  402b4b:	83 f9 1f             	cmp    $0x1f,%ecx
  402b4e:	7f 0d                	jg     402b5d <check+0x20>
  402b50:	89 f8                	mov    %edi,%eax
  402b52:	d3 e8                	shr    %cl,%eax
  402b54:	3c 0a                	cmp    $0xa,%al
  402b56:	74 11                	je     402b69 <check+0x2c>
  402b58:	83 c1 08             	add    $0x8,%ecx
  402b5b:	eb ee                	jmp    402b4b <check+0xe>
  402b5d:	b8 01 00 00 00       	mov    $0x1,%eax
  402b62:	c3                   	retq   
  402b63:	b8 00 00 00 00       	mov    $0x0,%eax
  402b68:	c3                   	retq   
  402b69:	b8 00 00 00 00       	mov    $0x0,%eax
  402b6e:	c3                   	retq   

0000000000402b6f <gencookie>:
  402b6f:	53                   	push   %rbx
  402b70:	83 c7 01             	add    $0x1,%edi
  402b73:	e8 88 e1 ff ff       	callq  400d00 <srandom@plt>
  402b78:	e8 b3 e2 ff ff       	callq  400e30 <random@plt>
  402b7d:	89 c3                	mov    %eax,%ebx
  402b7f:	89 c7                	mov    %eax,%edi
  402b81:	e8 b7 ff ff ff       	callq  402b3d <check>
  402b86:	85 c0                	test   %eax,%eax
  402b88:	74 ee                	je     402b78 <gencookie+0x9>
  402b8a:	89 d8                	mov    %ebx,%eax
  402b8c:	5b                   	pop    %rbx
  402b8d:	c3                   	retq   
  402b8e:	66 90                	xchg   %ax,%ax

0000000000402b90 <__libc_csu_init>:
  402b90:	41 57                	push   %r15
  402b92:	41 89 ff             	mov    %edi,%r15d
  402b95:	41 56                	push   %r14
  402b97:	49 89 f6             	mov    %rsi,%r14
  402b9a:	41 55                	push   %r13
  402b9c:	49 89 d5             	mov    %rdx,%r13
  402b9f:	41 54                	push   %r12
  402ba1:	4c 8d 25 70 12 20 00 	lea    0x201270(%rip),%r12        # 603e18 <__frame_dummy_init_array_entry>
  402ba8:	55                   	push   %rbp
  402ba9:	48 8d 2d 70 12 20 00 	lea    0x201270(%rip),%rbp        # 603e20 <__init_array_end>
  402bb0:	53                   	push   %rbx
  402bb1:	4c 29 e5             	sub    %r12,%rbp
  402bb4:	31 db                	xor    %ebx,%ebx
  402bb6:	48 c1 fd 03          	sar    $0x3,%rbp
  402bba:	48 83 ec 08          	sub    $0x8,%rsp
  402bbe:	e8 ed e0 ff ff       	callq  400cb0 <_init>
  402bc3:	48 85 ed             	test   %rbp,%rbp
  402bc6:	74 1e                	je     402be6 <__libc_csu_init+0x56>
  402bc8:	0f 1f 84 00 00 00 00 	nopl   0x0(%rax,%rax,1)
  402bcf:	00 
  402bd0:	4c 89 ea             	mov    %r13,%rdx
  402bd3:	4c 89 f6             	mov    %r14,%rsi
  402bd6:	44 89 ff             	mov    %r15d,%edi
  402bd9:	41 ff 14 dc          	callq  *(%r12,%rbx,8)
  402bdd:	48 83 c3 01          	add    $0x1,%rbx
  402be1:	48 39 eb             	cmp    %rbp,%rbx
  402be4:	75 ea                	jne    402bd0 <__libc_csu_init+0x40>
  402be6:	48 83 c4 08          	add    $0x8,%rsp
  402bea:	5b                   	pop    %rbx
  402beb:	5d                   	pop    %rbp
  402bec:	41 5c                	pop    %r12
  402bee:	41 5d                	pop    %r13
  402bf0:	41 5e                	pop    %r14
  402bf2:	41 5f                	pop    %r15
  402bf4:	c3                   	retq   
  402bf5:	90                   	nop
  402bf6:	66 2e 0f 1f 84 00 00 	nopw   %cs:0x0(%rax,%rax,1)
  402bfd:	00 00 00 

0000000000402c00 <__libc_csu_fini>:
  402c00:	f3 c3                	repz retq 

Disassembly of section .fini:

0000000000402c04 <_fini>:
  402c04:	48 83 ec 08          	sub    $0x8,%rsp
  402c08:	48 83 c4 08          	add    $0x8,%rsp
  402c0c:	c3                   	retq   
