rtarget:     file format elf64-x86-64


Disassembly of section .init:

0000000000400cb0 <_init>:
  400cb0:	48 83 ec 08          	sub    $0x8,%rsp
  400cb4:	48 8b 05 3d 43 20 00 	mov    0x20433d(%rip),%rax        # 604ff8 <_DYNAMIC+0x1d0>
  400cbb:	48 85 c0             	test   %rax,%rax
  400cbe:	74 05                	je     400cc5 <_init+0x15>
  400cc0:	e8 2b 01 00 00       	callq  400df0 <__gmon_start__@plt>
  400cc5:	48 83 c4 08          	add    $0x8,%rsp
  400cc9:	c3                   	retq   

Disassembly of section .plt:

0000000000400cd0 <strcasecmp@plt-0x10>:
  400cd0:	ff 35 32 43 20 00    	pushq  0x204332(%rip)        # 605008 <_GLOBAL_OFFSET_TABLE_+0x8>
  400cd6:	ff 25 34 43 20 00    	jmpq   *0x204334(%rip)        # 605010 <_GLOBAL_OFFSET_TABLE_+0x10>
  400cdc:	0f 1f 40 00          	nopl   0x0(%rax)

0000000000400ce0 <strcasecmp@plt>:
  400ce0:	ff 25 32 43 20 00    	jmpq   *0x204332(%rip)        # 605018 <_GLOBAL_OFFSET_TABLE_+0x18>
  400ce6:	68 00 00 00 00       	pushq  $0x0
  400ceb:	e9 e0 ff ff ff       	jmpq   400cd0 <_init+0x20>

0000000000400cf0 <__errno_location@plt>:
  400cf0:	ff 25 2a 43 20 00    	jmpq   *0x20432a(%rip)        # 605020 <_GLOBAL_OFFSET_TABLE_+0x20>
  400cf6:	68 01 00 00 00       	pushq  $0x1
  400cfb:	e9 d0 ff ff ff       	jmpq   400cd0 <_init+0x20>

0000000000400d00 <srandom@plt>:
  400d00:	ff 25 22 43 20 00    	jmpq   *0x204322(%rip)        # 605028 <_GLOBAL_OFFSET_TABLE_+0x28>
  400d06:	68 02 00 00 00       	pushq  $0x2
  400d0b:	e9 c0 ff ff ff       	jmpq   400cd0 <_init+0x20>

0000000000400d10 <strncmp@plt>:
  400d10:	ff 25 1a 43 20 00    	jmpq   *0x20431a(%rip)        # 605030 <_GLOBAL_OFFSET_TABLE_+0x30>
  400d16:	68 03 00 00 00       	pushq  $0x3
  400d1b:	e9 b0 ff ff ff       	jmpq   400cd0 <_init+0x20>

0000000000400d20 <strcpy@plt>:
  400d20:	ff 25 12 43 20 00    	jmpq   *0x204312(%rip)        # 605038 <_GLOBAL_OFFSET_TABLE_+0x38>
  400d26:	68 04 00 00 00       	pushq  $0x4
  400d2b:	e9 a0 ff ff ff       	jmpq   400cd0 <_init+0x20>

0000000000400d30 <puts@plt>:
  400d30:	ff 25 0a 43 20 00    	jmpq   *0x20430a(%rip)        # 605040 <_GLOBAL_OFFSET_TABLE_+0x40>
  400d36:	68 05 00 00 00       	pushq  $0x5
  400d3b:	e9 90 ff ff ff       	jmpq   400cd0 <_init+0x20>

0000000000400d40 <write@plt>:
  400d40:	ff 25 02 43 20 00    	jmpq   *0x204302(%rip)        # 605048 <_GLOBAL_OFFSET_TABLE_+0x48>
  400d46:	68 06 00 00 00       	pushq  $0x6
  400d4b:	e9 80 ff ff ff       	jmpq   400cd0 <_init+0x20>

0000000000400d50 <mmap@plt>:
  400d50:	ff 25 fa 42 20 00    	jmpq   *0x2042fa(%rip)        # 605050 <_GLOBAL_OFFSET_TABLE_+0x50>
  400d56:	68 07 00 00 00       	pushq  $0x7
  400d5b:	e9 70 ff ff ff       	jmpq   400cd0 <_init+0x20>

0000000000400d60 <printf@plt>:
  400d60:	ff 25 f2 42 20 00    	jmpq   *0x2042f2(%rip)        # 605058 <_GLOBAL_OFFSET_TABLE_+0x58>
  400d66:	68 08 00 00 00       	pushq  $0x8
  400d6b:	e9 60 ff ff ff       	jmpq   400cd0 <_init+0x20>

0000000000400d70 <memset@plt>:
  400d70:	ff 25 ea 42 20 00    	jmpq   *0x2042ea(%rip)        # 605060 <_GLOBAL_OFFSET_TABLE_+0x60>
  400d76:	68 09 00 00 00       	pushq  $0x9
  400d7b:	e9 50 ff ff ff       	jmpq   400cd0 <_init+0x20>

0000000000400d80 <alarm@plt>:
  400d80:	ff 25 e2 42 20 00    	jmpq   *0x2042e2(%rip)        # 605068 <_GLOBAL_OFFSET_TABLE_+0x68>
  400d86:	68 0a 00 00 00       	pushq  $0xa
  400d8b:	e9 40 ff ff ff       	jmpq   400cd0 <_init+0x20>

0000000000400d90 <close@plt>:
  400d90:	ff 25 da 42 20 00    	jmpq   *0x2042da(%rip)        # 605070 <_GLOBAL_OFFSET_TABLE_+0x70>
  400d96:	68 0b 00 00 00       	pushq  $0xb
  400d9b:	e9 30 ff ff ff       	jmpq   400cd0 <_init+0x20>

0000000000400da0 <read@plt>:
  400da0:	ff 25 d2 42 20 00    	jmpq   *0x2042d2(%rip)        # 605078 <_GLOBAL_OFFSET_TABLE_+0x78>
  400da6:	68 0c 00 00 00       	pushq  $0xc
  400dab:	e9 20 ff ff ff       	jmpq   400cd0 <_init+0x20>

0000000000400db0 <__libc_start_main@plt>:
  400db0:	ff 25 ca 42 20 00    	jmpq   *0x2042ca(%rip)        # 605080 <_GLOBAL_OFFSET_TABLE_+0x80>
  400db6:	68 0d 00 00 00       	pushq  $0xd
  400dbb:	e9 10 ff ff ff       	jmpq   400cd0 <_init+0x20>

0000000000400dc0 <signal@plt>:
  400dc0:	ff 25 c2 42 20 00    	jmpq   *0x2042c2(%rip)        # 605088 <_GLOBAL_OFFSET_TABLE_+0x88>
  400dc6:	68 0e 00 00 00       	pushq  $0xe
  400dcb:	e9 00 ff ff ff       	jmpq   400cd0 <_init+0x20>

0000000000400dd0 <gethostbyname@plt>:
  400dd0:	ff 25 ba 42 20 00    	jmpq   *0x2042ba(%rip)        # 605090 <_GLOBAL_OFFSET_TABLE_+0x90>
  400dd6:	68 0f 00 00 00       	pushq  $0xf
  400ddb:	e9 f0 fe ff ff       	jmpq   400cd0 <_init+0x20>

0000000000400de0 <fprintf@plt>:
  400de0:	ff 25 b2 42 20 00    	jmpq   *0x2042b2(%rip)        # 605098 <_GLOBAL_OFFSET_TABLE_+0x98>
  400de6:	68 10 00 00 00       	pushq  $0x10
  400deb:	e9 e0 fe ff ff       	jmpq   400cd0 <_init+0x20>

0000000000400df0 <__gmon_start__@plt>:
  400df0:	ff 25 aa 42 20 00    	jmpq   *0x2042aa(%rip)        # 6050a0 <_GLOBAL_OFFSET_TABLE_+0xa0>
  400df6:	68 11 00 00 00       	pushq  $0x11
  400dfb:	e9 d0 fe ff ff       	jmpq   400cd0 <_init+0x20>

0000000000400e00 <strtol@plt>:
  400e00:	ff 25 a2 42 20 00    	jmpq   *0x2042a2(%rip)        # 6050a8 <_GLOBAL_OFFSET_TABLE_+0xa8>
  400e06:	68 12 00 00 00       	pushq  $0x12
  400e0b:	e9 c0 fe ff ff       	jmpq   400cd0 <_init+0x20>

0000000000400e10 <memcpy@plt>:
  400e10:	ff 25 9a 42 20 00    	jmpq   *0x20429a(%rip)        # 6050b0 <_GLOBAL_OFFSET_TABLE_+0xb0>
  400e16:	68 13 00 00 00       	pushq  $0x13
  400e1b:	e9 b0 fe ff ff       	jmpq   400cd0 <_init+0x20>

0000000000400e20 <time@plt>:
  400e20:	ff 25 92 42 20 00    	jmpq   *0x204292(%rip)        # 6050b8 <_GLOBAL_OFFSET_TABLE_+0xb8>
  400e26:	68 14 00 00 00       	pushq  $0x14
  400e2b:	e9 a0 fe ff ff       	jmpq   400cd0 <_init+0x20>

0000000000400e30 <random@plt>:
  400e30:	ff 25 8a 42 20 00    	jmpq   *0x20428a(%rip)        # 6050c0 <_GLOBAL_OFFSET_TABLE_+0xc0>
  400e36:	68 15 00 00 00       	pushq  $0x15
  400e3b:	e9 90 fe ff ff       	jmpq   400cd0 <_init+0x20>

0000000000400e40 <_IO_getc@plt>:
  400e40:	ff 25 82 42 20 00    	jmpq   *0x204282(%rip)        # 6050c8 <_GLOBAL_OFFSET_TABLE_+0xc8>
  400e46:	68 16 00 00 00       	pushq  $0x16
  400e4b:	e9 80 fe ff ff       	jmpq   400cd0 <_init+0x20>

0000000000400e50 <__isoc99_sscanf@plt>:
  400e50:	ff 25 7a 42 20 00    	jmpq   *0x20427a(%rip)        # 6050d0 <_GLOBAL_OFFSET_TABLE_+0xd0>
  400e56:	68 17 00 00 00       	pushq  $0x17
  400e5b:	e9 70 fe ff ff       	jmpq   400cd0 <_init+0x20>

0000000000400e60 <munmap@plt>:
  400e60:	ff 25 72 42 20 00    	jmpq   *0x204272(%rip)        # 6050d8 <_GLOBAL_OFFSET_TABLE_+0xd8>
  400e66:	68 18 00 00 00       	pushq  $0x18
  400e6b:	e9 60 fe ff ff       	jmpq   400cd0 <_init+0x20>

0000000000400e70 <bcopy@plt>:
  400e70:	ff 25 6a 42 20 00    	jmpq   *0x20426a(%rip)        # 6050e0 <_GLOBAL_OFFSET_TABLE_+0xe0>
  400e76:	68 19 00 00 00       	pushq  $0x19
  400e7b:	e9 50 fe ff ff       	jmpq   400cd0 <_init+0x20>

0000000000400e80 <fopen@plt>:
  400e80:	ff 25 62 42 20 00    	jmpq   *0x204262(%rip)        # 6050e8 <_GLOBAL_OFFSET_TABLE_+0xe8>
  400e86:	68 1a 00 00 00       	pushq  $0x1a
  400e8b:	e9 40 fe ff ff       	jmpq   400cd0 <_init+0x20>

0000000000400e90 <getopt@plt>:
  400e90:	ff 25 5a 42 20 00    	jmpq   *0x20425a(%rip)        # 6050f0 <_GLOBAL_OFFSET_TABLE_+0xf0>
  400e96:	68 1b 00 00 00       	pushq  $0x1b
  400e9b:	e9 30 fe ff ff       	jmpq   400cd0 <_init+0x20>

0000000000400ea0 <strtoul@plt>:
  400ea0:	ff 25 52 42 20 00    	jmpq   *0x204252(%rip)        # 6050f8 <_GLOBAL_OFFSET_TABLE_+0xf8>
  400ea6:	68 1c 00 00 00       	pushq  $0x1c
  400eab:	e9 20 fe ff ff       	jmpq   400cd0 <_init+0x20>

0000000000400eb0 <gethostname@plt>:
  400eb0:	ff 25 4a 42 20 00    	jmpq   *0x20424a(%rip)        # 605100 <_GLOBAL_OFFSET_TABLE_+0x100>
  400eb6:	68 1d 00 00 00       	pushq  $0x1d
  400ebb:	e9 10 fe ff ff       	jmpq   400cd0 <_init+0x20>

0000000000400ec0 <sprintf@plt>:
  400ec0:	ff 25 42 42 20 00    	jmpq   *0x204242(%rip)        # 605108 <_GLOBAL_OFFSET_TABLE_+0x108>
  400ec6:	68 1e 00 00 00       	pushq  $0x1e
  400ecb:	e9 00 fe ff ff       	jmpq   400cd0 <_init+0x20>

0000000000400ed0 <exit@plt>:
  400ed0:	ff 25 3a 42 20 00    	jmpq   *0x20423a(%rip)        # 605110 <_GLOBAL_OFFSET_TABLE_+0x110>
  400ed6:	68 1f 00 00 00       	pushq  $0x1f
  400edb:	e9 f0 fd ff ff       	jmpq   400cd0 <_init+0x20>

0000000000400ee0 <connect@plt>:
  400ee0:	ff 25 32 42 20 00    	jmpq   *0x204232(%rip)        # 605118 <_GLOBAL_OFFSET_TABLE_+0x118>
  400ee6:	68 20 00 00 00       	pushq  $0x20
  400eeb:	e9 e0 fd ff ff       	jmpq   400cd0 <_init+0x20>

0000000000400ef0 <socket@plt>:
  400ef0:	ff 25 2a 42 20 00    	jmpq   *0x20422a(%rip)        # 605120 <_GLOBAL_OFFSET_TABLE_+0x120>
  400ef6:	68 21 00 00 00       	pushq  $0x21
  400efb:	e9 d0 fd ff ff       	jmpq   400cd0 <_init+0x20>

Disassembly of section .text:

0000000000400f00 <_start>:
  400f00:	31 ed                	xor    %ebp,%ebp
  400f02:	49 89 d1             	mov    %rdx,%r9
  400f05:	5e                   	pop    %rsi
  400f06:	48 89 e2             	mov    %rsp,%rdx
  400f09:	48 83 e4 f0          	and    $0xfffffffffffffff0,%rsp
  400f0d:	50                   	push   %rax
  400f0e:	54                   	push   %rsp
  400f0f:	49 c7 c0 30 2d 40 00 	mov    $0x402d30,%r8
  400f16:	48 c7 c1 c0 2c 40 00 	mov    $0x402cc0,%rcx
  400f1d:	48 c7 c7 a0 11 40 00 	mov    $0x4011a0,%rdi
  400f24:	e8 87 fe ff ff       	callq  400db0 <__libc_start_main@plt>
  400f29:	f4                   	hlt    
  400f2a:	66 0f 1f 44 00 00    	nopw   0x0(%rax,%rax,1)

0000000000400f30 <deregister_tm_clones>:
  400f30:	55                   	push   %rbp
  400f31:	b8 b0 54 60 00       	mov    $0x6054b0,%eax
  400f36:	48 3d b0 54 60 00    	cmp    $0x6054b0,%rax
  400f3c:	48 89 e5             	mov    %rsp,%rbp
  400f3f:	74 17                	je     400f58 <deregister_tm_clones+0x28>
  400f41:	b8 00 00 00 00       	mov    $0x0,%eax
  400f46:	48 85 c0             	test   %rax,%rax
  400f49:	74 0d                	je     400f58 <deregister_tm_clones+0x28>
  400f4b:	5d                   	pop    %rbp
  400f4c:	bf b0 54 60 00       	mov    $0x6054b0,%edi
  400f51:	ff e0                	jmpq   *%rax
  400f53:	0f 1f 44 00 00       	nopl   0x0(%rax,%rax,1)
  400f58:	5d                   	pop    %rbp
  400f59:	c3                   	retq   
  400f5a:	66 0f 1f 44 00 00    	nopw   0x0(%rax,%rax,1)

0000000000400f60 <register_tm_clones>:
  400f60:	be b0 54 60 00       	mov    $0x6054b0,%esi
  400f65:	55                   	push   %rbp
  400f66:	48 81 ee b0 54 60 00 	sub    $0x6054b0,%rsi
  400f6d:	48 89 e5             	mov    %rsp,%rbp
  400f70:	48 c1 fe 03          	sar    $0x3,%rsi
  400f74:	48 89 f0             	mov    %rsi,%rax
  400f77:	48 c1 e8 3f          	shr    $0x3f,%rax
  400f7b:	48 01 c6             	add    %rax,%rsi
  400f7e:	48 d1 fe             	sar    %rsi
  400f81:	74 15                	je     400f98 <register_tm_clones+0x38>
  400f83:	b8 00 00 00 00       	mov    $0x0,%eax
  400f88:	48 85 c0             	test   %rax,%rax
  400f8b:	74 0b                	je     400f98 <register_tm_clones+0x38>
  400f8d:	5d                   	pop    %rbp
  400f8e:	bf b0 54 60 00       	mov    $0x6054b0,%edi
  400f93:	ff e0                	jmpq   *%rax
  400f95:	0f 1f 00             	nopl   (%rax)
  400f98:	5d                   	pop    %rbp
  400f99:	c3                   	retq   
  400f9a:	66 0f 1f 44 00 00    	nopw   0x0(%rax,%rax,1)

0000000000400fa0 <__do_global_dtors_aux>:
  400fa0:	80 3d 31 45 20 00 00 	cmpb   $0x0,0x204531(%rip)        # 6054d8 <completed.6940>
  400fa7:	75 17                	jne    400fc0 <__do_global_dtors_aux+0x20>
  400fa9:	55                   	push   %rbp
  400faa:	48 89 e5             	mov    %rsp,%rbp
  400fad:	e8 7e ff ff ff       	callq  400f30 <deregister_tm_clones>
  400fb2:	c6 05 1f 45 20 00 01 	movb   $0x1,0x20451f(%rip)        # 6054d8 <completed.6940>
  400fb9:	5d                   	pop    %rbp
  400fba:	c3                   	retq   
  400fbb:	0f 1f 44 00 00       	nopl   0x0(%rax,%rax,1)
  400fc0:	f3 c3                	repz retq 
  400fc2:	0f 1f 40 00          	nopl   0x0(%rax)
  400fc6:	66 2e 0f 1f 84 00 00 	nopw   %cs:0x0(%rax,%rax,1)
  400fcd:	00 00 00 

0000000000400fd0 <frame_dummy>:
  400fd0:	55                   	push   %rbp
  400fd1:	48 89 e5             	mov    %rsp,%rbp
  400fd4:	5d                   	pop    %rbp
  400fd5:	eb 89                	jmp    400f60 <register_tm_clones>

0000000000400fd7 <usage>:
  400fd7:	48 83 ec 08          	sub    $0x8,%rsp
  400fdb:	48 89 fe             	mov    %rdi,%rsi
  400fde:	83 3d 23 45 20 00 00 	cmpl   $0x0,0x204523(%rip)        # 605508 <is_checker>
  400fe5:	74 41                	je     401028 <usage+0x51>
  400fe7:	bf 48 2d 40 00       	mov    $0x402d48,%edi
  400fec:	b8 00 00 00 00       	mov    $0x0,%eax
  400ff1:	e8 6a fd ff ff       	callq  400d60 <printf@plt>
  400ff6:	bf 80 2d 40 00       	mov    $0x402d80,%edi
  400ffb:	e8 30 fd ff ff       	callq  400d30 <puts@plt>
  401000:	bf f8 2e 40 00       	mov    $0x402ef8,%edi
  401005:	e8 26 fd ff ff       	callq  400d30 <puts@plt>
  40100a:	bf a8 2d 40 00       	mov    $0x402da8,%edi
  40100f:	e8 1c fd ff ff       	callq  400d30 <puts@plt>
  401014:	bf 12 2f 40 00       	mov    $0x402f12,%edi
  401019:	e8 12 fd ff ff       	callq  400d30 <puts@plt>
  40101e:	bf 00 00 00 00       	mov    $0x0,%edi
  401023:	e8 a8 fe ff ff       	callq  400ed0 <exit@plt>
  401028:	bf 2e 2f 40 00       	mov    $0x402f2e,%edi
  40102d:	b8 00 00 00 00       	mov    $0x0,%eax
  401032:	e8 29 fd ff ff       	callq  400d60 <printf@plt>
  401037:	bf d0 2d 40 00       	mov    $0x402dd0,%edi
  40103c:	e8 ef fc ff ff       	callq  400d30 <puts@plt>
  401041:	bf f8 2d 40 00       	mov    $0x402df8,%edi
  401046:	e8 e5 fc ff ff       	callq  400d30 <puts@plt>
  40104b:	bf 4c 2f 40 00       	mov    $0x402f4c,%edi
  401050:	e8 db fc ff ff       	callq  400d30 <puts@plt>
  401055:	eb c7                	jmp    40101e <usage+0x47>

0000000000401057 <initialize_target>:
  401057:	55                   	push   %rbp
  401058:	53                   	push   %rbx
  401059:	48 81 ec 08 21 00 00 	sub    $0x2108,%rsp
  401060:	89 f5                	mov    %esi,%ebp
  401062:	89 3d 90 44 20 00    	mov    %edi,0x204490(%rip)        # 6054f8 <check_level>
  401068:	8b 3d fa 40 20 00    	mov    0x2040fa(%rip),%edi        # 605168 <target_id>
  40106e:	e8 24 1c 00 00       	callq  402c97 <gencookie>
  401073:	89 05 8b 44 20 00    	mov    %eax,0x20448b(%rip)        # 605504 <cookie>
  401079:	89 c7                	mov    %eax,%edi
  40107b:	e8 17 1c 00 00       	callq  402c97 <gencookie>
  401080:	89 05 7a 44 20 00    	mov    %eax,0x20447a(%rip)        # 605500 <authkey>
  401086:	8b 05 dc 40 20 00    	mov    0x2040dc(%rip),%eax        # 605168 <target_id>
  40108c:	8d 78 01             	lea    0x1(%rax),%edi
  40108f:	e8 6c fc ff ff       	callq  400d00 <srandom@plt>
  401094:	e8 97 fd ff ff       	callq  400e30 <random@plt>
  401099:	89 c7                	mov    %eax,%edi
  40109b:	e8 b8 02 00 00       	callq  401358 <scramble>
  4010a0:	89 c3                	mov    %eax,%ebx
  4010a2:	85 ed                	test   %ebp,%ebp
  4010a4:	75 3d                	jne    4010e3 <initialize_target+0x8c>
  4010a6:	b8 00 00 00 00       	mov    $0x0,%eax
  4010ab:	01 d8                	add    %ebx,%eax
  4010ad:	0f b7 c0             	movzwl %ax,%eax
  4010b0:	8d 04 c5 00 01 00 00 	lea    0x100(,%rax,8),%eax
  4010b7:	89 c0                	mov    %eax,%eax
  4010b9:	48 89 05 e0 43 20 00 	mov    %rax,0x2043e0(%rip)        # 6054a0 <buf_offset>
  4010c0:	c6 05 61 50 20 00 72 	movb   $0x72,0x205061(%rip)        # 606128 <target_prefix>
  4010c7:	83 3d da 43 20 00 00 	cmpl   $0x0,0x2043da(%rip)        # 6054a8 <notify>
  4010ce:	74 09                	je     4010d9 <initialize_target+0x82>
  4010d0:	83 3d 31 44 20 00 00 	cmpl   $0x0,0x204431(%rip)        # 605508 <is_checker>
  4010d7:	74 22                	je     4010fb <initialize_target+0xa4>
  4010d9:	48 81 c4 08 21 00 00 	add    $0x2108,%rsp
  4010e0:	5b                   	pop    %rbx
  4010e1:	5d                   	pop    %rbp
  4010e2:	c3                   	retq   
  4010e3:	bf 00 00 00 00       	mov    $0x0,%edi
  4010e8:	e8 33 fd ff ff       	callq  400e20 <time@plt>
  4010ed:	89 c7                	mov    %eax,%edi
  4010ef:	e8 0c fc ff ff       	callq  400d00 <srandom@plt>
  4010f4:	e8 37 fd ff ff       	callq  400e30 <random@plt>
  4010f9:	eb b0                	jmp    4010ab <initialize_target+0x54>
  4010fb:	be 00 01 00 00       	mov    $0x100,%esi
  401100:	48 89 e7             	mov    %rsp,%rdi
  401103:	e8 a8 fd ff ff       	callq  400eb0 <gethostname@plt>
  401108:	89 c5                	mov    %eax,%ebp
  40110a:	85 c0                	test   %eax,%eax
  40110c:	75 23                	jne    401131 <initialize_target+0xda>
  40110e:	89 c3                	mov    %eax,%ebx
  401110:	48 63 c3             	movslq %ebx,%rax
  401113:	48 8b 3c c5 80 51 60 	mov    0x605180(,%rax,8),%rdi
  40111a:	00 
  40111b:	48 85 ff             	test   %rdi,%rdi
  40111e:	74 2a                	je     40114a <initialize_target+0xf3>
  401120:	48 89 e6             	mov    %rsp,%rsi
  401123:	e8 b8 fb ff ff       	callq  400ce0 <strcasecmp@plt>
  401128:	85 c0                	test   %eax,%eax
  40112a:	74 19                	je     401145 <initialize_target+0xee>
  40112c:	83 c3 01             	add    $0x1,%ebx
  40112f:	eb df                	jmp    401110 <initialize_target+0xb9>
  401131:	bf 28 2e 40 00       	mov    $0x402e28,%edi
  401136:	e8 f5 fb ff ff       	callq  400d30 <puts@plt>
  40113b:	bf 08 00 00 00       	mov    $0x8,%edi
  401140:	e8 8b fd ff ff       	callq  400ed0 <exit@plt>
  401145:	bd 01 00 00 00       	mov    $0x1,%ebp
  40114a:	85 ed                	test   %ebp,%ebp
  40114c:	74 36                	je     401184 <initialize_target+0x12d>
  40114e:	48 8d bc 24 00 01 00 	lea    0x100(%rsp),%rdi
  401155:	00 
  401156:	e8 cf 18 00 00       	callq  402a2a <init_driver>
  40115b:	85 c0                	test   %eax,%eax
  40115d:	0f 89 76 ff ff ff    	jns    4010d9 <initialize_target+0x82>
  401163:	48 8d b4 24 00 01 00 	lea    0x100(%rsp),%rsi
  40116a:	00 
  40116b:	bf a0 2e 40 00       	mov    $0x402ea0,%edi
  401170:	b8 00 00 00 00       	mov    $0x0,%eax
  401175:	e8 e6 fb ff ff       	callq  400d60 <printf@plt>
  40117a:	bf 08 00 00 00       	mov    $0x8,%edi
  40117f:	e8 4c fd ff ff       	callq  400ed0 <exit@plt>
  401184:	48 89 e6             	mov    %rsp,%rsi
  401187:	bf 60 2e 40 00       	mov    $0x402e60,%edi
  40118c:	b8 00 00 00 00       	mov    $0x0,%eax
  401191:	e8 ca fb ff ff       	callq  400d60 <printf@plt>
  401196:	bf 08 00 00 00       	mov    $0x8,%edi
  40119b:	e8 30 fd ff ff       	callq  400ed0 <exit@plt>

00000000004011a0 <main>:
  4011a0:	41 56                	push   %r14
  4011a2:	41 55                	push   %r13
  4011a4:	41 54                	push   %r12
  4011a6:	55                   	push   %rbp
  4011a7:	53                   	push   %rbx
  4011a8:	41 89 fc             	mov    %edi,%r12d
  4011ab:	48 89 f3             	mov    %rsi,%rbx
  4011ae:	be 12 1e 40 00       	mov    $0x401e12,%esi
  4011b3:	bf 0b 00 00 00       	mov    $0xb,%edi
  4011b8:	e8 03 fc ff ff       	callq  400dc0 <signal@plt>
  4011bd:	be c4 1d 40 00       	mov    $0x401dc4,%esi
  4011c2:	bf 07 00 00 00       	mov    $0x7,%edi
  4011c7:	e8 f4 fb ff ff       	callq  400dc0 <signal@plt>
  4011cc:	be 60 1e 40 00       	mov    $0x401e60,%esi
  4011d1:	bf 04 00 00 00       	mov    $0x4,%edi
  4011d6:	e8 e5 fb ff ff       	callq  400dc0 <signal@plt>
  4011db:	83 3d 26 43 20 00 00 	cmpl   $0x0,0x204326(%rip)        # 605508 <is_checker>
  4011e2:	75 24                	jne    401208 <main+0x68>
  4011e4:	bd 65 2f 40 00       	mov    $0x402f65,%ebp
  4011e9:	48 8b 05 d0 42 20 00 	mov    0x2042d0(%rip),%rax        # 6054c0 <stdin@@GLIBC_2.2.5>
  4011f0:	48 89 05 f9 42 20 00 	mov    %rax,0x2042f9(%rip)        # 6054f0 <infile>
  4011f7:	41 bd 00 00 00 00    	mov    $0x0,%r13d
  4011fd:	41 be 00 00 00 00    	mov    $0x0,%r14d
  401203:	e9 80 00 00 00       	jmpq   401288 <main+0xe8>
  401208:	be ae 1e 40 00       	mov    $0x401eae,%esi
  40120d:	bf 0e 00 00 00       	mov    $0xe,%edi
  401212:	e8 a9 fb ff ff       	callq  400dc0 <signal@plt>
  401217:	bf 05 00 00 00       	mov    $0x5,%edi
  40121c:	e8 5f fb ff ff       	callq  400d80 <alarm@plt>
  401221:	bd 6a 2f 40 00       	mov    $0x402f6a,%ebp
  401226:	eb c1                	jmp    4011e9 <main+0x49>
  401228:	48 8b 3b             	mov    (%rbx),%rdi
  40122b:	e8 a7 fd ff ff       	callq  400fd7 <usage>
  401230:	be cd 32 40 00       	mov    $0x4032cd,%esi
  401235:	48 8b 3d 8c 42 20 00 	mov    0x20428c(%rip),%rdi        # 6054c8 <optarg@@GLIBC_2.2.5>
  40123c:	e8 3f fc ff ff       	callq  400e80 <fopen@plt>
  401241:	48 89 05 a8 42 20 00 	mov    %rax,0x2042a8(%rip)        # 6054f0 <infile>
  401248:	48 85 c0             	test   %rax,%rax
  40124b:	75 3b                	jne    401288 <main+0xe8>
  40124d:	48 8b 15 74 42 20 00 	mov    0x204274(%rip),%rdx        # 6054c8 <optarg@@GLIBC_2.2.5>
  401254:	be 72 2f 40 00       	mov    $0x402f72,%esi
  401259:	48 8b 3d 70 42 20 00 	mov    0x204270(%rip),%rdi        # 6054d0 <stderr@@GLIBC_2.2.5>
  401260:	e8 7b fb ff ff       	callq  400de0 <fprintf@plt>
  401265:	b8 01 00 00 00       	mov    $0x1,%eax
  40126a:	e9 c2 00 00 00       	jmpq   401331 <main+0x191>
  40126f:	ba 10 00 00 00       	mov    $0x10,%edx
  401274:	be 00 00 00 00       	mov    $0x0,%esi
  401279:	48 8b 3d 48 42 20 00 	mov    0x204248(%rip),%rdi        # 6054c8 <optarg@@GLIBC_2.2.5>
  401280:	e8 1b fc ff ff       	callq  400ea0 <strtoul@plt>
  401285:	41 89 c6             	mov    %eax,%r14d
  401288:	48 89 ea             	mov    %rbp,%rdx
  40128b:	48 89 de             	mov    %rbx,%rsi
  40128e:	44 89 e7             	mov    %r12d,%edi
  401291:	e8 fa fb ff ff       	callq  400e90 <getopt@plt>
  401296:	3c ff                	cmp    $0xff,%al
  401298:	74 52                	je     4012ec <main+0x14c>
  40129a:	0f be f0             	movsbl %al,%esi
  40129d:	83 e8 61             	sub    $0x61,%eax
  4012a0:	3c 10                	cmp    $0x10,%al
  4012a2:	77 31                	ja     4012d5 <main+0x135>
  4012a4:	0f b6 c0             	movzbl %al,%eax
  4012a7:	ff 24 c5 b0 2f 40 00 	jmpq   *0x402fb0(,%rax,8)
  4012ae:	ba 0a 00 00 00       	mov    $0xa,%edx
  4012b3:	be 00 00 00 00       	mov    $0x0,%esi
  4012b8:	48 8b 3d 09 42 20 00 	mov    0x204209(%rip),%rdi        # 6054c8 <optarg@@GLIBC_2.2.5>
  4012bf:	e8 3c fb ff ff       	callq  400e00 <strtol@plt>
  4012c4:	41 89 c5             	mov    %eax,%r13d
  4012c7:	eb bf                	jmp    401288 <main+0xe8>
  4012c9:	c7 05 d5 41 20 00 00 	movl   $0x0,0x2041d5(%rip)        # 6054a8 <notify>
  4012d0:	00 00 00 
  4012d3:	eb b3                	jmp    401288 <main+0xe8>
  4012d5:	bf 8f 2f 40 00       	mov    $0x402f8f,%edi
  4012da:	b8 00 00 00 00       	mov    $0x0,%eax
  4012df:	e8 7c fa ff ff       	callq  400d60 <printf@plt>
  4012e4:	48 8b 3b             	mov    (%rbx),%rdi
  4012e7:	e8 eb fc ff ff       	callq  400fd7 <usage>
  4012ec:	be 01 00 00 00       	mov    $0x1,%esi
  4012f1:	44 89 ef             	mov    %r13d,%edi
  4012f4:	e8 5e fd ff ff       	callq  401057 <initialize_target>
  4012f9:	83 3d 08 42 20 00 00 	cmpl   $0x0,0x204208(%rip)        # 605508 <is_checker>
  401300:	74 09                	je     40130b <main+0x16b>
  401302:	44 39 35 f7 41 20 00 	cmp    %r14d,0x2041f7(%rip)        # 605500 <authkey>
  401309:	75 2f                	jne    40133a <main+0x19a>
  40130b:	8b 35 f3 41 20 00    	mov    0x2041f3(%rip),%esi        # 605504 <cookie>
  401311:	bf a2 2f 40 00       	mov    $0x402fa2,%edi
  401316:	b8 00 00 00 00       	mov    $0x0,%eax
  40131b:	e8 40 fa ff ff       	callq  400d60 <printf@plt>
  401320:	48 8b 3d 79 41 20 00 	mov    0x204179(%rip),%rdi        # 6054a0 <buf_offset>
  401327:	e8 d0 0b 00 00       	callq  401efc <launch>
  40132c:	b8 00 00 00 00       	mov    $0x0,%eax
  401331:	5b                   	pop    %rbx
  401332:	5d                   	pop    %rbp
  401333:	41 5c                	pop    %r12
  401335:	41 5d                	pop    %r13
  401337:	41 5e                	pop    %r14
  401339:	c3                   	retq   
  40133a:	44 89 f6             	mov    %r14d,%esi
  40133d:	bf c8 2e 40 00       	mov    $0x402ec8,%edi
  401342:	b8 00 00 00 00       	mov    $0x0,%eax
  401347:	e8 14 fa ff ff       	callq  400d60 <printf@plt>
  40134c:	b8 00 00 00 00       	mov    $0x0,%eax
  401351:	e8 6a 07 00 00       	callq  401ac0 <check_fail>
  401356:	eb b3                	jmp    40130b <main+0x16b>

0000000000401358 <scramble>:
  401358:	b8 00 00 00 00       	mov    $0x0,%eax
  40135d:	eb 11                	jmp    401370 <scramble+0x18>
  40135f:	69 d0 66 50 00 00    	imul   $0x5066,%eax,%edx
  401365:	01 fa                	add    %edi,%edx
  401367:	89 c1                	mov    %eax,%ecx
  401369:	89 54 8c d0          	mov    %edx,-0x30(%rsp,%rcx,4)
  40136d:	83 c0 01             	add    $0x1,%eax
  401370:	83 f8 09             	cmp    $0x9,%eax
  401373:	76 ea                	jbe    40135f <scramble+0x7>
  401375:	8b 44 24 e4          	mov    -0x1c(%rsp),%eax
  401379:	69 c0 ab 00 00 00    	imul   $0xab,%eax,%eax
  40137f:	89 44 24 e4          	mov    %eax,-0x1c(%rsp)
  401383:	8b 44 24 d4          	mov    -0x2c(%rsp),%eax
  401387:	69 c0 d5 9b 00 00    	imul   $0x9bd5,%eax,%eax
  40138d:	89 44 24 d4          	mov    %eax,-0x2c(%rsp)
  401391:	8b 44 24 dc          	mov    -0x24(%rsp),%eax
  401395:	69 c0 3c f1 00 00    	imul   $0xf13c,%eax,%eax
  40139b:	89 44 24 dc          	mov    %eax,-0x24(%rsp)
  40139f:	8b 44 24 dc          	mov    -0x24(%rsp),%eax
  4013a3:	69 c0 d3 e3 00 00    	imul   $0xe3d3,%eax,%eax
  4013a9:	89 44 24 dc          	mov    %eax,-0x24(%rsp)
  4013ad:	8b 44 24 ec          	mov    -0x14(%rsp),%eax
  4013b1:	69 c0 e7 fb 00 00    	imul   $0xfbe7,%eax,%eax
  4013b7:	89 44 24 ec          	mov    %eax,-0x14(%rsp)
  4013bb:	8b 44 24 d8          	mov    -0x28(%rsp),%eax
  4013bf:	69 c0 2a ff 00 00    	imul   $0xff2a,%eax,%eax
  4013c5:	89 44 24 d8          	mov    %eax,-0x28(%rsp)
  4013c9:	8b 44 24 dc          	mov    -0x24(%rsp),%eax
  4013cd:	69 c0 71 15 00 00    	imul   $0x1571,%eax,%eax
  4013d3:	89 44 24 dc          	mov    %eax,-0x24(%rsp)
  4013d7:	8b 44 24 f0          	mov    -0x10(%rsp),%eax
  4013db:	69 c0 3b e4 00 00    	imul   $0xe43b,%eax,%eax
  4013e1:	89 44 24 f0          	mov    %eax,-0x10(%rsp)
  4013e5:	8b 44 24 d8          	mov    -0x28(%rsp),%eax
  4013e9:	69 c0 4f f4 00 00    	imul   $0xf44f,%eax,%eax
  4013ef:	89 44 24 d8          	mov    %eax,-0x28(%rsp)
  4013f3:	8b 44 24 e0          	mov    -0x20(%rsp),%eax
  4013f7:	69 c0 c4 21 00 00    	imul   $0x21c4,%eax,%eax
  4013fd:	89 44 24 e0          	mov    %eax,-0x20(%rsp)
  401401:	8b 44 24 ec          	mov    -0x14(%rsp),%eax
  401405:	69 c0 52 a8 00 00    	imul   $0xa852,%eax,%eax
  40140b:	89 44 24 ec          	mov    %eax,-0x14(%rsp)
  40140f:	8b 44 24 d0          	mov    -0x30(%rsp),%eax
  401413:	69 c0 be e2 00 00    	imul   $0xe2be,%eax,%eax
  401419:	89 44 24 d0          	mov    %eax,-0x30(%rsp)
  40141d:	8b 44 24 ec          	mov    -0x14(%rsp),%eax
  401421:	69 c0 58 5e 00 00    	imul   $0x5e58,%eax,%eax
  401427:	89 44 24 ec          	mov    %eax,-0x14(%rsp)
  40142b:	8b 44 24 d4          	mov    -0x2c(%rsp),%eax
  40142f:	69 c0 50 81 00 00    	imul   $0x8150,%eax,%eax
  401435:	89 44 24 d4          	mov    %eax,-0x2c(%rsp)
  401439:	8b 44 24 d0          	mov    -0x30(%rsp),%eax
  40143d:	69 c0 e7 6e 00 00    	imul   $0x6ee7,%eax,%eax
  401443:	89 44 24 d0          	mov    %eax,-0x30(%rsp)
  401447:	8b 44 24 e0          	mov    -0x20(%rsp),%eax
  40144b:	69 c0 15 fb 00 00    	imul   $0xfb15,%eax,%eax
  401451:	89 44 24 e0          	mov    %eax,-0x20(%rsp)
  401455:	8b 44 24 e0          	mov    -0x20(%rsp),%eax
  401459:	69 c0 bb 82 00 00    	imul   $0x82bb,%eax,%eax
  40145f:	89 44 24 e0          	mov    %eax,-0x20(%rsp)
  401463:	8b 44 24 d4          	mov    -0x2c(%rsp),%eax
  401467:	69 c0 ed fb 00 00    	imul   $0xfbed,%eax,%eax
  40146d:	89 44 24 d4          	mov    %eax,-0x2c(%rsp)
  401471:	8b 44 24 dc          	mov    -0x24(%rsp),%eax
  401475:	69 c0 ca fa 00 00    	imul   $0xfaca,%eax,%eax
  40147b:	89 44 24 dc          	mov    %eax,-0x24(%rsp)
  40147f:	8b 44 24 e4          	mov    -0x1c(%rsp),%eax
  401483:	69 c0 1a ca 00 00    	imul   $0xca1a,%eax,%eax
  401489:	89 44 24 e4          	mov    %eax,-0x1c(%rsp)
  40148d:	8b 44 24 ec          	mov    -0x14(%rsp),%eax
  401491:	69 c0 f6 c9 00 00    	imul   $0xc9f6,%eax,%eax
  401497:	89 44 24 ec          	mov    %eax,-0x14(%rsp)
  40149b:	8b 44 24 ec          	mov    -0x14(%rsp),%eax
  40149f:	69 c0 93 74 00 00    	imul   $0x7493,%eax,%eax
  4014a5:	89 44 24 ec          	mov    %eax,-0x14(%rsp)
  4014a9:	8b 44 24 f4          	mov    -0xc(%rsp),%eax
  4014ad:	69 c0 a0 8b 00 00    	imul   $0x8ba0,%eax,%eax
  4014b3:	89 44 24 f4          	mov    %eax,-0xc(%rsp)
  4014b7:	8b 44 24 dc          	mov    -0x24(%rsp),%eax
  4014bb:	69 c0 66 70 00 00    	imul   $0x7066,%eax,%eax
  4014c1:	89 44 24 dc          	mov    %eax,-0x24(%rsp)
  4014c5:	8b 44 24 e8          	mov    -0x18(%rsp),%eax
  4014c9:	69 c0 41 d8 00 00    	imul   $0xd841,%eax,%eax
  4014cf:	89 44 24 e8          	mov    %eax,-0x18(%rsp)
  4014d3:	8b 44 24 e8          	mov    -0x18(%rsp),%eax
  4014d7:	69 c0 b9 3b 00 00    	imul   $0x3bb9,%eax,%eax
  4014dd:	89 44 24 e8          	mov    %eax,-0x18(%rsp)
  4014e1:	8b 44 24 ec          	mov    -0x14(%rsp),%eax
  4014e5:	69 c0 15 24 00 00    	imul   $0x2415,%eax,%eax
  4014eb:	89 44 24 ec          	mov    %eax,-0x14(%rsp)
  4014ef:	8b 44 24 e0          	mov    -0x20(%rsp),%eax
  4014f3:	69 c0 0e 3c 00 00    	imul   $0x3c0e,%eax,%eax
  4014f9:	89 44 24 e0          	mov    %eax,-0x20(%rsp)
  4014fd:	8b 44 24 e8          	mov    -0x18(%rsp),%eax
  401501:	69 c0 06 34 00 00    	imul   $0x3406,%eax,%eax
  401507:	89 44 24 e8          	mov    %eax,-0x18(%rsp)
  40150b:	8b 44 24 dc          	mov    -0x24(%rsp),%eax
  40150f:	69 c0 1d 2d 00 00    	imul   $0x2d1d,%eax,%eax
  401515:	89 44 24 dc          	mov    %eax,-0x24(%rsp)
  401519:	8b 44 24 ec          	mov    -0x14(%rsp),%eax
  40151d:	69 c0 4c bd 00 00    	imul   $0xbd4c,%eax,%eax
  401523:	89 44 24 ec          	mov    %eax,-0x14(%rsp)
  401527:	8b 44 24 e4          	mov    -0x1c(%rsp),%eax
  40152b:	69 c0 7f 12 00 00    	imul   $0x127f,%eax,%eax
  401531:	89 44 24 e4          	mov    %eax,-0x1c(%rsp)
  401535:	8b 44 24 e0          	mov    -0x20(%rsp),%eax
  401539:	69 c0 1d bf 00 00    	imul   $0xbf1d,%eax,%eax
  40153f:	89 44 24 e0          	mov    %eax,-0x20(%rsp)
  401543:	8b 44 24 e4          	mov    -0x1c(%rsp),%eax
  401547:	69 c0 ff b3 00 00    	imul   $0xb3ff,%eax,%eax
  40154d:	89 44 24 e4          	mov    %eax,-0x1c(%rsp)
  401551:	8b 44 24 dc          	mov    -0x24(%rsp),%eax
  401555:	69 c0 2d ee 00 00    	imul   $0xee2d,%eax,%eax
  40155b:	89 44 24 dc          	mov    %eax,-0x24(%rsp)
  40155f:	8b 44 24 d0          	mov    -0x30(%rsp),%eax
  401563:	69 c0 98 b0 00 00    	imul   $0xb098,%eax,%eax
  401569:	89 44 24 d0          	mov    %eax,-0x30(%rsp)
  40156d:	8b 44 24 f0          	mov    -0x10(%rsp),%eax
  401571:	69 c0 5e 47 00 00    	imul   $0x475e,%eax,%eax
  401577:	89 44 24 f0          	mov    %eax,-0x10(%rsp)
  40157b:	8b 44 24 d8          	mov    -0x28(%rsp),%eax
  40157f:	69 c0 8b 97 00 00    	imul   $0x978b,%eax,%eax
  401585:	89 44 24 d8          	mov    %eax,-0x28(%rsp)
  401589:	8b 44 24 f4          	mov    -0xc(%rsp),%eax
  40158d:	69 c0 fb 7d 00 00    	imul   $0x7dfb,%eax,%eax
  401593:	89 44 24 f4          	mov    %eax,-0xc(%rsp)
  401597:	8b 44 24 d8          	mov    -0x28(%rsp),%eax
  40159b:	69 c0 ed 52 00 00    	imul   $0x52ed,%eax,%eax
  4015a1:	89 44 24 d8          	mov    %eax,-0x28(%rsp)
  4015a5:	8b 44 24 d8          	mov    -0x28(%rsp),%eax
  4015a9:	69 c0 1c 9a 00 00    	imul   $0x9a1c,%eax,%eax
  4015af:	89 44 24 d8          	mov    %eax,-0x28(%rsp)
  4015b3:	8b 44 24 dc          	mov    -0x24(%rsp),%eax
  4015b7:	69 c0 d0 d6 00 00    	imul   $0xd6d0,%eax,%eax
  4015bd:	89 44 24 dc          	mov    %eax,-0x24(%rsp)
  4015c1:	8b 44 24 ec          	mov    -0x14(%rsp),%eax
  4015c5:	69 c0 1d ad 00 00    	imul   $0xad1d,%eax,%eax
  4015cb:	89 44 24 ec          	mov    %eax,-0x14(%rsp)
  4015cf:	8b 44 24 e4          	mov    -0x1c(%rsp),%eax
  4015d3:	69 c0 9f 40 00 00    	imul   $0x409f,%eax,%eax
  4015d9:	89 44 24 e4          	mov    %eax,-0x1c(%rsp)
  4015dd:	8b 44 24 e4          	mov    -0x1c(%rsp),%eax
  4015e1:	69 c0 3d d0 00 00    	imul   $0xd03d,%eax,%eax
  4015e7:	89 44 24 e4          	mov    %eax,-0x1c(%rsp)
  4015eb:	8b 44 24 e0          	mov    -0x20(%rsp),%eax
  4015ef:	69 c0 10 84 00 00    	imul   $0x8410,%eax,%eax
  4015f5:	89 44 24 e0          	mov    %eax,-0x20(%rsp)
  4015f9:	8b 44 24 f4          	mov    -0xc(%rsp),%eax
  4015fd:	69 c0 f0 95 00 00    	imul   $0x95f0,%eax,%eax
  401603:	89 44 24 f4          	mov    %eax,-0xc(%rsp)
  401607:	8b 44 24 f4          	mov    -0xc(%rsp),%eax
  40160b:	69 c0 91 cd 00 00    	imul   $0xcd91,%eax,%eax
  401611:	89 44 24 f4          	mov    %eax,-0xc(%rsp)
  401615:	8b 44 24 f0          	mov    -0x10(%rsp),%eax
  401619:	69 c0 fc a4 00 00    	imul   $0xa4fc,%eax,%eax
  40161f:	89 44 24 f0          	mov    %eax,-0x10(%rsp)
  401623:	8b 44 24 e4          	mov    -0x1c(%rsp),%eax
  401627:	69 c0 f5 0e 00 00    	imul   $0xef5,%eax,%eax
  40162d:	89 44 24 e4          	mov    %eax,-0x1c(%rsp)
  401631:	8b 44 24 e4          	mov    -0x1c(%rsp),%eax
  401635:	69 c0 aa ff 00 00    	imul   $0xffaa,%eax,%eax
  40163b:	89 44 24 e4          	mov    %eax,-0x1c(%rsp)
  40163f:	8b 44 24 e0          	mov    -0x20(%rsp),%eax
  401643:	69 c0 4d 4b 00 00    	imul   $0x4b4d,%eax,%eax
  401649:	89 44 24 e0          	mov    %eax,-0x20(%rsp)
  40164d:	8b 44 24 ec          	mov    -0x14(%rsp),%eax
  401651:	69 c0 b9 e4 00 00    	imul   $0xe4b9,%eax,%eax
  401657:	89 44 24 ec          	mov    %eax,-0x14(%rsp)
  40165b:	8b 44 24 e8          	mov    -0x18(%rsp),%eax
  40165f:	69 c0 07 1a 00 00    	imul   $0x1a07,%eax,%eax
  401665:	89 44 24 e8          	mov    %eax,-0x18(%rsp)
  401669:	8b 44 24 d8          	mov    -0x28(%rsp),%eax
  40166d:	69 c0 ca ea 00 00    	imul   $0xeaca,%eax,%eax
  401673:	89 44 24 d8          	mov    %eax,-0x28(%rsp)
  401677:	8b 44 24 e0          	mov    -0x20(%rsp),%eax
  40167b:	69 c0 f1 b8 00 00    	imul   $0xb8f1,%eax,%eax
  401681:	89 44 24 e0          	mov    %eax,-0x20(%rsp)
  401685:	8b 44 24 ec          	mov    -0x14(%rsp),%eax
  401689:	69 c0 9b fb 00 00    	imul   $0xfb9b,%eax,%eax
  40168f:	89 44 24 ec          	mov    %eax,-0x14(%rsp)
  401693:	8b 44 24 d0          	mov    -0x30(%rsp),%eax
  401697:	69 c0 18 43 00 00    	imul   $0x4318,%eax,%eax
  40169d:	89 44 24 d0          	mov    %eax,-0x30(%rsp)
  4016a1:	8b 44 24 ec          	mov    -0x14(%rsp),%eax
  4016a5:	69 c0 a0 a2 00 00    	imul   $0xa2a0,%eax,%eax
  4016ab:	89 44 24 ec          	mov    %eax,-0x14(%rsp)
  4016af:	8b 44 24 d8          	mov    -0x28(%rsp),%eax
  4016b3:	69 c0 dc 89 00 00    	imul   $0x89dc,%eax,%eax
  4016b9:	89 44 24 d8          	mov    %eax,-0x28(%rsp)
  4016bd:	8b 44 24 f0          	mov    -0x10(%rsp),%eax
  4016c1:	69 c0 74 f1 00 00    	imul   $0xf174,%eax,%eax
  4016c7:	89 44 24 f0          	mov    %eax,-0x10(%rsp)
  4016cb:	8b 44 24 f0          	mov    -0x10(%rsp),%eax
  4016cf:	6b c0 68             	imul   $0x68,%eax,%eax
  4016d2:	89 44 24 f0          	mov    %eax,-0x10(%rsp)
  4016d6:	8b 44 24 f4          	mov    -0xc(%rsp),%eax
  4016da:	69 c0 7c a4 00 00    	imul   $0xa47c,%eax,%eax
  4016e0:	89 44 24 f4          	mov    %eax,-0xc(%rsp)
  4016e4:	8b 44 24 e8          	mov    -0x18(%rsp),%eax
  4016e8:	69 c0 72 dc 00 00    	imul   $0xdc72,%eax,%eax
  4016ee:	89 44 24 e8          	mov    %eax,-0x18(%rsp)
  4016f2:	8b 44 24 dc          	mov    -0x24(%rsp),%eax
  4016f6:	69 c0 8a 4f 00 00    	imul   $0x4f8a,%eax,%eax
  4016fc:	89 44 24 dc          	mov    %eax,-0x24(%rsp)
  401700:	8b 44 24 e0          	mov    -0x20(%rsp),%eax
  401704:	69 c0 a1 dc 00 00    	imul   $0xdca1,%eax,%eax
  40170a:	89 44 24 e0          	mov    %eax,-0x20(%rsp)
  40170e:	8b 44 24 f4          	mov    -0xc(%rsp),%eax
  401712:	69 c0 f4 aa 00 00    	imul   $0xaaf4,%eax,%eax
  401718:	89 44 24 f4          	mov    %eax,-0xc(%rsp)
  40171c:	8b 44 24 f0          	mov    -0x10(%rsp),%eax
  401720:	69 c0 3c 96 00 00    	imul   $0x963c,%eax,%eax
  401726:	89 44 24 f0          	mov    %eax,-0x10(%rsp)
  40172a:	8b 44 24 ec          	mov    -0x14(%rsp),%eax
  40172e:	69 c0 c8 0a 00 00    	imul   $0xac8,%eax,%eax
  401734:	89 44 24 ec          	mov    %eax,-0x14(%rsp)
  401738:	8b 44 24 e0          	mov    -0x20(%rsp),%eax
  40173c:	69 c0 62 f2 00 00    	imul   $0xf262,%eax,%eax
  401742:	89 44 24 e0          	mov    %eax,-0x20(%rsp)
  401746:	8b 44 24 e4          	mov    -0x1c(%rsp),%eax
  40174a:	69 c0 38 1d 00 00    	imul   $0x1d38,%eax,%eax
  401750:	89 44 24 e4          	mov    %eax,-0x1c(%rsp)
  401754:	8b 44 24 d4          	mov    -0x2c(%rsp),%eax
  401758:	69 c0 79 7a 00 00    	imul   $0x7a79,%eax,%eax
  40175e:	89 44 24 d4          	mov    %eax,-0x2c(%rsp)
  401762:	8b 44 24 d4          	mov    -0x2c(%rsp),%eax
  401766:	69 c0 15 3b 00 00    	imul   $0x3b15,%eax,%eax
  40176c:	89 44 24 d4          	mov    %eax,-0x2c(%rsp)
  401770:	ba 00 00 00 00       	mov    $0x0,%edx
  401775:	b8 00 00 00 00       	mov    $0x0,%eax
  40177a:	eb 0b                	jmp    401787 <scramble+0x42f>
  40177c:	89 d1                	mov    %edx,%ecx
  40177e:	8b 4c 8c d0          	mov    -0x30(%rsp,%rcx,4),%ecx
  401782:	01 c8                	add    %ecx,%eax
  401784:	83 c2 01             	add    $0x1,%edx
  401787:	83 fa 09             	cmp    $0x9,%edx
  40178a:	76 f0                	jbe    40177c <scramble+0x424>
  40178c:	f3 c3                	repz retq 

000000000040178e <getbuf>:
  40178e:	48 83 ec 18          	sub    $0x18,%rsp
  401792:	48 89 e7             	mov    %rsp,%rdi
  401795:	e8 55 03 00 00       	callq  401aef <Gets>
  40179a:	b8 01 00 00 00       	mov    $0x1,%eax
  40179f:	48 83 c4 18          	add    $0x18,%rsp
  4017a3:	c3                   	retq   

00000000004017a4 <touch1>:
  4017a4:	48 83 ec 08          	sub    $0x8,%rsp
  4017a8:	c7 05 4a 3d 20 00 01 	movl   $0x1,0x203d4a(%rip)        # 6054fc <vlevel>
  4017af:	00 00 00 
  4017b2:	bf 25 31 40 00       	mov    $0x403125,%edi
  4017b7:	e8 74 f5 ff ff       	callq  400d30 <puts@plt>
  4017bc:	bf 01 00 00 00       	mov    $0x1,%edi
  4017c1:	e8 24 05 00 00       	callq  401cea <validate>
  4017c6:	bf 00 00 00 00       	mov    $0x0,%edi
  4017cb:	e8 00 f7 ff ff       	callq  400ed0 <exit@plt>

00000000004017d0 <touch2>:
  4017d0:	48 83 ec 08          	sub    $0x8,%rsp
  4017d4:	89 fe                	mov    %edi,%esi
  4017d6:	c7 05 1c 3d 20 00 02 	movl   $0x2,0x203d1c(%rip)        # 6054fc <vlevel>
  4017dd:	00 00 00 
  4017e0:	39 3d 1e 3d 20 00    	cmp    %edi,0x203d1e(%rip)        # 605504 <cookie>
  4017e6:	74 23                	je     40180b <touch2+0x3b>
  4017e8:	bf 70 31 40 00       	mov    $0x403170,%edi
  4017ed:	b8 00 00 00 00       	mov    $0x0,%eax
  4017f2:	e8 69 f5 ff ff       	callq  400d60 <printf@plt>
  4017f7:	bf 02 00 00 00       	mov    $0x2,%edi
  4017fc:	e8 9b 05 00 00       	callq  401d9c <fail>
  401801:	bf 00 00 00 00       	mov    $0x0,%edi
  401806:	e8 c5 f6 ff ff       	callq  400ed0 <exit@plt>
  40180b:	bf 48 31 40 00       	mov    $0x403148,%edi
  401810:	b8 00 00 00 00       	mov    $0x0,%eax
  401815:	e8 46 f5 ff ff       	callq  400d60 <printf@plt>
  40181a:	bf 02 00 00 00       	mov    $0x2,%edi
  40181f:	e8 c6 04 00 00       	callq  401cea <validate>
  401824:	eb db                	jmp    401801 <touch2+0x31>

0000000000401826 <hexmatch>:
  401826:	41 54                	push   %r12
  401828:	55                   	push   %rbp
  401829:	53                   	push   %rbx
  40182a:	48 83 ec 70          	sub    $0x70,%rsp
  40182e:	89 fd                	mov    %edi,%ebp
  401830:	48 89 f3             	mov    %rsi,%rbx
  401833:	e8 f8 f5 ff ff       	callq  400e30 <random@plt>
  401838:	48 89 c1             	mov    %rax,%rcx
  40183b:	48 ba 0b d7 a3 70 3d 	movabs $0xa3d70a3d70a3d70b,%rdx
  401842:	0a d7 a3 
  401845:	48 f7 ea             	imul   %rdx
  401848:	48 01 ca             	add    %rcx,%rdx
  40184b:	48 c1 fa 06          	sar    $0x6,%rdx
  40184f:	48 89 c8             	mov    %rcx,%rax
  401852:	48 c1 f8 3f          	sar    $0x3f,%rax
  401856:	48 29 c2             	sub    %rax,%rdx
  401859:	48 8d 04 92          	lea    (%rdx,%rdx,4),%rax
  40185d:	48 8d 14 80          	lea    (%rax,%rax,4),%rdx
  401861:	48 8d 04 95 00 00 00 	lea    0x0(,%rdx,4),%rax
  401868:	00 
  401869:	48 29 c1             	sub    %rax,%rcx
  40186c:	4c 8d 24 0c          	lea    (%rsp,%rcx,1),%r12
  401870:	89 ea                	mov    %ebp,%edx
  401872:	be 42 31 40 00       	mov    $0x403142,%esi
  401877:	4c 89 e7             	mov    %r12,%rdi
  40187a:	b8 00 00 00 00       	mov    $0x0,%eax
  40187f:	e8 3c f6 ff ff       	callq  400ec0 <sprintf@plt>
  401884:	ba 09 00 00 00       	mov    $0x9,%edx
  401889:	4c 89 e6             	mov    %r12,%rsi
  40188c:	48 89 df             	mov    %rbx,%rdi
  40188f:	e8 7c f4 ff ff       	callq  400d10 <strncmp@plt>
  401894:	85 c0                	test   %eax,%eax
  401896:	0f 94 c0             	sete   %al
  401899:	0f b6 c0             	movzbl %al,%eax
  40189c:	48 83 c4 70          	add    $0x70,%rsp
  4018a0:	5b                   	pop    %rbx
  4018a1:	5d                   	pop    %rbp
  4018a2:	41 5c                	pop    %r12
  4018a4:	c3                   	retq   

00000000004018a5 <touch3>:
  4018a5:	53                   	push   %rbx
  4018a6:	48 89 fb             	mov    %rdi,%rbx
  4018a9:	c7 05 49 3c 20 00 03 	movl   $0x3,0x203c49(%rip)        # 6054fc <vlevel>
  4018b0:	00 00 00 
  4018b3:	48 89 fe             	mov    %rdi,%rsi
  4018b6:	8b 3d 48 3c 20 00    	mov    0x203c48(%rip),%edi        # 605504 <cookie>
  4018bc:	e8 65 ff ff ff       	callq  401826 <hexmatch>
  4018c1:	85 c0                	test   %eax,%eax
  4018c3:	74 26                	je     4018eb <touch3+0x46>
  4018c5:	48 89 de             	mov    %rbx,%rsi
  4018c8:	bf 98 31 40 00       	mov    $0x403198,%edi
  4018cd:	b8 00 00 00 00       	mov    $0x0,%eax
  4018d2:	e8 89 f4 ff ff       	callq  400d60 <printf@plt>
  4018d7:	bf 03 00 00 00       	mov    $0x3,%edi
  4018dc:	e8 09 04 00 00       	callq  401cea <validate>
  4018e1:	bf 00 00 00 00       	mov    $0x0,%edi
  4018e6:	e8 e5 f5 ff ff       	callq  400ed0 <exit@plt>
  4018eb:	48 89 de             	mov    %rbx,%rsi
  4018ee:	bf c0 31 40 00       	mov    $0x4031c0,%edi
  4018f3:	b8 00 00 00 00       	mov    $0x0,%eax
  4018f8:	e8 63 f4 ff ff       	callq  400d60 <printf@plt>
  4018fd:	bf 03 00 00 00       	mov    $0x3,%edi
  401902:	e8 95 04 00 00       	callq  401d9c <fail>
  401907:	eb d8                	jmp    4018e1 <touch3+0x3c>

0000000000401909 <test>:
  401909:	48 83 ec 08          	sub    $0x8,%rsp
  40190d:	b8 00 00 00 00       	mov    $0x0,%eax
  401912:	e8 77 fe ff ff       	callq  40178e <getbuf>
  401917:	89 c6                	mov    %eax,%esi
  401919:	bf e8 31 40 00       	mov    $0x4031e8,%edi
  40191e:	b8 00 00 00 00       	mov    $0x0,%eax
  401923:	e8 38 f4 ff ff       	callq  400d60 <printf@plt>
  401928:	48 83 c4 08          	add    $0x8,%rsp
  40192c:	c3                   	retq   

000000000040192d <start_farm>:
  40192d:	b8 01 00 00 00       	mov    $0x1,%eax
  401932:	c3                   	retq   

0000000000401933 <addval_482>:
  401933:	8d 87 58 91 90 c3    	lea    -0x3c6f6ea8(%rdi),%eax
  401939:	c3                   	retq   

000000000040193a <getval_254>:
  40193a:	b8 b1 54 cf 58       	mov    $0x58cf54b1,%eax
  40193f:	c3                   	retq   

0000000000401940 <addval_196>:
  401940:	8d 87 48 8b c7 c3    	lea    -0x3c3874b8(%rdi),%eax
  401946:	c3                   	retq   

0000000000401947 <setval_499>:
  401947:	c7 07 48 89 c7 c3    	movl   $0xc3c78948,(%rdi)
  40194d:	c3                   	retq   

000000000040194e <addval_191>:
  40194e:	8d 87 48 89 c7 c3    	lea    -0x3c3876b8(%rdi),%eax
  401954:	c3                   	retq   

0000000000401955 <addval_473>:
  401955:	8d 87 48 89 c7 c2    	lea    -0x3d3876b8(%rdi),%eax
  40195b:	c3                   	retq   

000000000040195c <addval_229>:
  40195c:	8d 87 58 91 90 90    	lea    -0x6f6f6ea8(%rdi),%eax
  401962:	c3                   	retq   

0000000000401963 <setval_327>:
  401963:	c7 07 bf 17 58 90    	movl   $0x905817bf,(%rdi)
  401969:	c3                   	retq   

000000000040196a <mid_farm>:
  40196a:	b8 01 00 00 00       	mov    $0x1,%eax
  40196f:	c3                   	retq   

0000000000401970 <add_xy>:
  401970:	48 8d 04 37          	lea    (%rdi,%rsi,1),%rax
  401974:	c3                   	retq   

0000000000401975 <getval_234>:
  401975:	b8 89 ce c4 db       	mov    $0xdbc4ce89,%eax
  40197a:	c3                   	retq   

000000000040197b <addval_477>:
  40197b:	8d 87 48 89 e0 c2    	lea    -0x3d1f76b8(%rdi),%eax
  401981:	c3                   	retq   

0000000000401982 <setval_295>:
  401982:	c7 07 a3 89 c2 94    	movl   $0x94c289a3,(%rdi)
  401988:	c3                   	retq   

0000000000401989 <addval_475>:
  401989:	8d 87 48 99 e0 c3    	lea    -0x3c1f66b8(%rdi),%eax
  40198f:	c3                   	retq   

0000000000401990 <addval_126>:
  401990:	8d 87 89 d1 91 90    	lea    -0x6f6e2e77(%rdi),%eax
  401996:	c3                   	retq   

0000000000401997 <addval_172>:
  401997:	8d 87 48 89 e0 c3    	lea    -0x3c1f76b8(%rdi),%eax
  40199d:	c3                   	retq   

000000000040199e <addval_446>:
  40199e:	8d 87 88 d1 38 c0    	lea    -0x3fc72e78(%rdi),%eax
  4019a4:	c3                   	retq   

00000000004019a5 <setval_160>:
  4019a5:	c7 07 8d d1 c3 09    	movl   $0x9c3d18d,(%rdi)
  4019ab:	c3                   	retq   

00000000004019ac <addval_317>:
  4019ac:	8d 87 89 c2 20 c9    	lea    -0x36df3d77(%rdi),%eax
  4019b2:	c3                   	retq   

00000000004019b3 <addval_101>:
  4019b3:	8d 87 c9 ce 38 d2    	lea    -0x2dc73137(%rdi),%eax
  4019b9:	c3                   	retq   

00000000004019ba <addval_289>:
  4019ba:	8d 87 89 d1 08 d2    	lea    -0x2df72e77(%rdi),%eax
  4019c0:	c3                   	retq   

00000000004019c1 <setval_157>:
  4019c1:	c7 07 48 89 e0 c3    	movl   $0xc3e08948,(%rdi)
  4019c7:	c3                   	retq   

00000000004019c8 <getval_181>:
  4019c8:	b8 08 89 e0 c3       	mov    $0xc3e08908,%eax
  4019cd:	c3                   	retq   

00000000004019ce <setval_285>:
  4019ce:	c7 07 89 ce a4 db    	movl   $0xdba4ce89,(%rdi)
  4019d4:	c3                   	retq   

00000000004019d5 <setval_201>:
  4019d5:	c7 07 89 ce 20 d2    	movl   $0xd220ce89,(%rdi)
  4019db:	c3                   	retq   

00000000004019dc <getval_263>:
  4019dc:	b8 a9 d1 38 d2       	mov    $0xd238d1a9,%eax
  4019e1:	c3                   	retq   

00000000004019e2 <setval_258>:
  4019e2:	c7 07 68 89 e0 90    	movl   $0x90e08968,(%rdi)
  4019e8:	c3                   	retq   

00000000004019e9 <setval_273>:
  4019e9:	c7 07 89 c2 90 c3    	movl   $0xc390c289,(%rdi)
  4019ef:	c3                   	retq   

00000000004019f0 <getval_474>:
  4019f0:	b8 89 d1 c4 d2       	mov    $0xd2c4d189,%eax
  4019f5:	c3                   	retq   

00000000004019f6 <addval_452>:
  4019f6:	8d 87 09 ce 38 d2    	lea    -0x2dc731f7(%rdi),%eax
  4019fc:	c3                   	retq   

00000000004019fd <setval_498>:
  4019fd:	c7 07 e6 89 ce c2    	movl   $0xc2ce89e6,(%rdi)
  401a03:	c3                   	retq   

0000000000401a04 <addval_462>:
  401a04:	8d 87 c9 c2 08 c9    	lea    -0x36f73d37(%rdi),%eax
  401a0a:	c3                   	retq   

0000000000401a0b <setval_494>:
  401a0b:	c7 07 89 d1 38 c9    	movl   $0xc938d189,(%rdi)
  401a11:	c3                   	retq   

0000000000401a12 <setval_369>:
  401a12:	c7 07 09 c2 08 db    	movl   $0xdb08c209,(%rdi)
  401a18:	c3                   	retq   

0000000000401a19 <getval_478>:
  401a19:	b8 89 c2 c4 db       	mov    $0xdbc4c289,%eax
  401a1e:	c3                   	retq   

0000000000401a1f <addval_414>:
  401a1f:	8d 87 89 c2 48 c0    	lea    -0x3fb73d77(%rdi),%eax
  401a25:	c3                   	retq   

0000000000401a26 <setval_318>:
  401a26:	c7 07 48 89 e0 91    	movl   $0x91e08948,(%rdi)
  401a2c:	c3                   	retq   

0000000000401a2d <setval_441>:
  401a2d:	c7 07 89 d1 91 90    	movl   $0x9091d189,(%rdi)
  401a33:	c3                   	retq   

0000000000401a34 <setval_315>:
  401a34:	c7 07 09 c2 08 c9    	movl   $0xc908c209,(%rdi)
  401a3a:	c3                   	retq   

0000000000401a3b <addval_407>:
  401a3b:	8d 87 48 89 e0 92    	lea    -0x6d1f76b8(%rdi),%eax
  401a41:	c3                   	retq   

0000000000401a42 <setval_233>:
  401a42:	c7 07 a9 ce 84 d2    	movl   $0xd284cea9,(%rdi)
  401a48:	c3                   	retq   

0000000000401a49 <getval_461>:
  401a49:	b8 77 89 ce c3       	mov    $0xc3ce8977,%eax
  401a4e:	c3                   	retq   

0000000000401a4f <end_farm>:
  401a4f:	b8 01 00 00 00       	mov    $0x1,%eax
  401a54:	c3                   	retq   

0000000000401a55 <save_char>:
  401a55:	8b 05 c9 46 20 00    	mov    0x2046c9(%rip),%eax        # 606124 <gets_cnt>
  401a5b:	3d ff 03 00 00       	cmp    $0x3ff,%eax
  401a60:	7f 49                	jg     401aab <save_char+0x56>
  401a62:	89 f9                	mov    %edi,%ecx
  401a64:	c0 e9 04             	shr    $0x4,%cl
  401a67:	8d 14 40             	lea    (%rax,%rax,2),%edx
  401a6a:	83 e1 0f             	and    $0xf,%ecx
  401a6d:	0f b6 b1 10 35 40 00 	movzbl 0x403510(%rcx),%esi
  401a74:	48 63 ca             	movslq %edx,%rcx
  401a77:	40 88 b1 20 55 60 00 	mov    %sil,0x605520(%rcx)
  401a7e:	8d 4a 01             	lea    0x1(%rdx),%ecx
  401a81:	83 e7 0f             	and    $0xf,%edi
  401a84:	0f b6 b7 10 35 40 00 	movzbl 0x403510(%rdi),%esi
  401a8b:	48 63 c9             	movslq %ecx,%rcx
  401a8e:	40 88 b1 20 55 60 00 	mov    %sil,0x605520(%rcx)
  401a95:	83 c2 02             	add    $0x2,%edx
  401a98:	48 63 d2             	movslq %edx,%rdx
  401a9b:	c6 82 20 55 60 00 20 	movb   $0x20,0x605520(%rdx)
  401aa2:	83 c0 01             	add    $0x1,%eax
  401aa5:	89 05 79 46 20 00    	mov    %eax,0x204679(%rip)        # 606124 <gets_cnt>
  401aab:	f3 c3                	repz retq 

0000000000401aad <save_term>:
  401aad:	8b 05 71 46 20 00    	mov    0x204671(%rip),%eax        # 606124 <gets_cnt>
  401ab3:	8d 04 40             	lea    (%rax,%rax,2),%eax
  401ab6:	48 98                	cltq   
  401ab8:	c6 80 20 55 60 00 00 	movb   $0x0,0x605520(%rax)
  401abf:	c3                   	retq   

0000000000401ac0 <check_fail>:
  401ac0:	48 83 ec 08          	sub    $0x8,%rsp
  401ac4:	0f be 35 5d 46 20 00 	movsbl 0x20465d(%rip),%esi        # 606128 <target_prefix>
  401acb:	b9 20 55 60 00       	mov    $0x605520,%ecx
  401ad0:	8b 15 22 3a 20 00    	mov    0x203a22(%rip),%edx        # 6054f8 <check_level>
  401ad6:	bf 0b 32 40 00       	mov    $0x40320b,%edi
  401adb:	b8 00 00 00 00       	mov    $0x0,%eax
  401ae0:	e8 7b f2 ff ff       	callq  400d60 <printf@plt>
  401ae5:	bf 01 00 00 00       	mov    $0x1,%edi
  401aea:	e8 e1 f3 ff ff       	callq  400ed0 <exit@plt>

0000000000401aef <Gets>:
  401aef:	41 54                	push   %r12
  401af1:	55                   	push   %rbp
  401af2:	53                   	push   %rbx
  401af3:	49 89 fc             	mov    %rdi,%r12
  401af6:	c7 05 24 46 20 00 00 	movl   $0x0,0x204624(%rip)        # 606124 <gets_cnt>
  401afd:	00 00 00 
  401b00:	48 89 fb             	mov    %rdi,%rbx
  401b03:	eb 11                	jmp    401b16 <Gets+0x27>
  401b05:	48 8d 6b 01          	lea    0x1(%rbx),%rbp
  401b09:	88 03                	mov    %al,(%rbx)
  401b0b:	0f b6 f8             	movzbl %al,%edi
  401b0e:	e8 42 ff ff ff       	callq  401a55 <save_char>
  401b13:	48 89 eb             	mov    %rbp,%rbx
  401b16:	48 8b 3d d3 39 20 00 	mov    0x2039d3(%rip),%rdi        # 6054f0 <infile>
  401b1d:	e8 1e f3 ff ff       	callq  400e40 <_IO_getc@plt>
  401b22:	83 f8 ff             	cmp    $0xffffffff,%eax
  401b25:	74 05                	je     401b2c <Gets+0x3d>
  401b27:	83 f8 0a             	cmp    $0xa,%eax
  401b2a:	75 d9                	jne    401b05 <Gets+0x16>
  401b2c:	c6 03 00             	movb   $0x0,(%rbx)
  401b2f:	b8 00 00 00 00       	mov    $0x0,%eax
  401b34:	e8 74 ff ff ff       	callq  401aad <save_term>
  401b39:	4c 89 e0             	mov    %r12,%rax
  401b3c:	5b                   	pop    %rbx
  401b3d:	5d                   	pop    %rbp
  401b3e:	41 5c                	pop    %r12
  401b40:	c3                   	retq   

0000000000401b41 <notify_server>:
  401b41:	83 3d c0 39 20 00 00 	cmpl   $0x0,0x2039c0(%rip)        # 605508 <is_checker>
  401b48:	0f 85 9a 01 00 00    	jne    401ce8 <notify_server+0x1a7>
  401b4e:	55                   	push   %rbp
  401b4f:	53                   	push   %rbx
  401b50:	48 81 ec 08 40 00 00 	sub    $0x4008,%rsp
  401b57:	89 fb                	mov    %edi,%ebx
  401b59:	8b 05 c5 45 20 00    	mov    0x2045c5(%rip),%eax        # 606124 <gets_cnt>
  401b5f:	83 c0 64             	add    $0x64,%eax
  401b62:	3d 00 20 00 00       	cmp    $0x2000,%eax
  401b67:	0f 8f b5 00 00 00    	jg     401c22 <notify_server+0xe1>
  401b6d:	44 0f be 0d b3 45 20 	movsbl 0x2045b3(%rip),%r9d        # 606128 <target_prefix>
  401b74:	00 
  401b75:	83 3d 2c 39 20 00 00 	cmpl   $0x0,0x20392c(%rip)        # 6054a8 <notify>
  401b7c:	0f 84 b9 00 00 00    	je     401c3b <notify_server+0xfa>
  401b82:	44 8b 05 77 39 20 00 	mov    0x203977(%rip),%r8d        # 605500 <authkey>
  401b89:	85 db                	test   %ebx,%ebx
  401b8b:	0f 84 b5 00 00 00    	je     401c46 <notify_server+0x105>
  401b91:	bd 21 32 40 00       	mov    $0x403221,%ebp
  401b96:	68 20 55 60 00       	pushq  $0x605520
  401b9b:	56                   	push   %rsi
  401b9c:	48 89 e9             	mov    %rbp,%rcx
  401b9f:	8b 15 c3 35 20 00    	mov    0x2035c3(%rip),%edx        # 605168 <target_id>
  401ba5:	be 2b 32 40 00       	mov    $0x40322b,%esi
  401baa:	48 8d bc 24 10 20 00 	lea    0x2010(%rsp),%rdi
  401bb1:	00 
  401bb2:	b8 00 00 00 00       	mov    $0x0,%eax
  401bb7:	e8 04 f3 ff ff       	callq  400ec0 <sprintf@plt>
  401bbc:	48 83 c4 10          	add    $0x10,%rsp
  401bc0:	83 3d e1 38 20 00 00 	cmpl   $0x0,0x2038e1(%rip)        # 6054a8 <notify>
  401bc7:	0f 84 ab 00 00 00    	je     401c78 <notify_server+0x137>
  401bcd:	85 db                	test   %ebx,%ebx
  401bcf:	0f 84 97 00 00 00    	je     401c6c <notify_server+0x12b>
  401bd5:	49 89 e1             	mov    %rsp,%r9
  401bd8:	41 b8 00 00 00 00    	mov    $0x0,%r8d
  401bde:	48 8d 8c 24 00 20 00 	lea    0x2000(%rsp),%rcx
  401be5:	00 
  401be6:	48 8b 15 83 35 20 00 	mov    0x203583(%rip),%rdx        # 605170 <lab>
  401bed:	48 8b 35 84 35 20 00 	mov    0x203584(%rip),%rsi        # 605178 <course>
  401bf4:	48 8b 3d 65 35 20 00 	mov    0x203565(%rip),%rdi        # 605160 <user_id>
  401bfb:	e8 fb 0f 00 00       	callq  402bfb <driver_post>
  401c00:	85 c0                	test   %eax,%eax
  401c02:	78 4c                	js     401c50 <notify_server+0x10f>
  401c04:	bf 70 33 40 00       	mov    $0x403370,%edi
  401c09:	e8 22 f1 ff ff       	callq  400d30 <puts@plt>
  401c0e:	bf 53 32 40 00       	mov    $0x403253,%edi
  401c13:	e8 18 f1 ff ff       	callq  400d30 <puts@plt>
  401c18:	48 81 c4 08 40 00 00 	add    $0x4008,%rsp
  401c1f:	5b                   	pop    %rbx
  401c20:	5d                   	pop    %rbp
  401c21:	c3                   	retq   
  401c22:	bf 40 33 40 00       	mov    $0x403340,%edi
  401c27:	b8 00 00 00 00       	mov    $0x0,%eax
  401c2c:	e8 2f f1 ff ff       	callq  400d60 <printf@plt>
  401c31:	bf 01 00 00 00       	mov    $0x1,%edi
  401c36:	e8 95 f2 ff ff       	callq  400ed0 <exit@plt>
  401c3b:	41 b8 ff ff ff ff    	mov    $0xffffffff,%r8d
  401c41:	e9 43 ff ff ff       	jmpq   401b89 <notify_server+0x48>
  401c46:	bd 26 32 40 00       	mov    $0x403226,%ebp
  401c4b:	e9 46 ff ff ff       	jmpq   401b96 <notify_server+0x55>
  401c50:	48 89 e6             	mov    %rsp,%rsi
  401c53:	bf 47 32 40 00       	mov    $0x403247,%edi
  401c58:	b8 00 00 00 00       	mov    $0x0,%eax
  401c5d:	e8 fe f0 ff ff       	callq  400d60 <printf@plt>
  401c62:	bf 01 00 00 00       	mov    $0x1,%edi
  401c67:	e8 64 f2 ff ff       	callq  400ed0 <exit@plt>
  401c6c:	bf 5d 32 40 00       	mov    $0x40325d,%edi
  401c71:	e8 ba f0 ff ff       	callq  400d30 <puts@plt>
  401c76:	eb a0                	jmp    401c18 <notify_server+0xd7>
  401c78:	48 89 ee             	mov    %rbp,%rsi
  401c7b:	bf a8 33 40 00       	mov    $0x4033a8,%edi
  401c80:	b8 00 00 00 00       	mov    $0x0,%eax
  401c85:	e8 d6 f0 ff ff       	callq  400d60 <printf@plt>
  401c8a:	48 8b 35 cf 34 20 00 	mov    0x2034cf(%rip),%rsi        # 605160 <user_id>
  401c91:	bf 64 32 40 00       	mov    $0x403264,%edi
  401c96:	b8 00 00 00 00       	mov    $0x0,%eax
  401c9b:	e8 c0 f0 ff ff       	callq  400d60 <printf@plt>
  401ca0:	48 8b 35 d1 34 20 00 	mov    0x2034d1(%rip),%rsi        # 605178 <course>
  401ca7:	bf 71 32 40 00       	mov    $0x403271,%edi
  401cac:	b8 00 00 00 00       	mov    $0x0,%eax
  401cb1:	e8 aa f0 ff ff       	callq  400d60 <printf@plt>
  401cb6:	48 8b 35 b3 34 20 00 	mov    0x2034b3(%rip),%rsi        # 605170 <lab>
  401cbd:	bf 7d 32 40 00       	mov    $0x40327d,%edi
  401cc2:	b8 00 00 00 00       	mov    $0x0,%eax
  401cc7:	e8 94 f0 ff ff       	callq  400d60 <printf@plt>
  401ccc:	48 8d b4 24 00 20 00 	lea    0x2000(%rsp),%rsi
  401cd3:	00 
  401cd4:	bf 86 32 40 00       	mov    $0x403286,%edi
  401cd9:	b8 00 00 00 00       	mov    $0x0,%eax
  401cde:	e8 7d f0 ff ff       	callq  400d60 <printf@plt>
  401ce3:	e9 30 ff ff ff       	jmpq   401c18 <notify_server+0xd7>
  401ce8:	f3 c3                	repz retq 

0000000000401cea <validate>:
  401cea:	53                   	push   %rbx
  401ceb:	89 fb                	mov    %edi,%ebx
  401ced:	83 3d 14 38 20 00 00 	cmpl   $0x0,0x203814(%rip)        # 605508 <is_checker>
  401cf4:	74 60                	je     401d56 <validate+0x6c>
  401cf6:	39 3d 00 38 20 00    	cmp    %edi,0x203800(%rip)        # 6054fc <vlevel>
  401cfc:	75 29                	jne    401d27 <validate+0x3d>
  401cfe:	8b 35 f4 37 20 00    	mov    0x2037f4(%rip),%esi        # 6054f8 <check_level>
  401d04:	39 fe                	cmp    %edi,%esi
  401d06:	75 33                	jne    401d3b <validate+0x51>
  401d08:	0f be 35 19 44 20 00 	movsbl 0x204419(%rip),%esi        # 606128 <target_prefix>
  401d0f:	b9 20 55 60 00       	mov    $0x605520,%ecx
  401d14:	89 fa                	mov    %edi,%edx
  401d16:	bf b0 32 40 00       	mov    $0x4032b0,%edi
  401d1b:	b8 00 00 00 00       	mov    $0x0,%eax
  401d20:	e8 3b f0 ff ff       	callq  400d60 <printf@plt>
  401d25:	5b                   	pop    %rbx
  401d26:	c3                   	retq   
  401d27:	bf 92 32 40 00       	mov    $0x403292,%edi
  401d2c:	e8 ff ef ff ff       	callq  400d30 <puts@plt>
  401d31:	b8 00 00 00 00       	mov    $0x0,%eax
  401d36:	e8 85 fd ff ff       	callq  401ac0 <check_fail>
  401d3b:	89 fa                	mov    %edi,%edx
  401d3d:	bf d0 33 40 00       	mov    $0x4033d0,%edi
  401d42:	b8 00 00 00 00       	mov    $0x0,%eax
  401d47:	e8 14 f0 ff ff       	callq  400d60 <printf@plt>
  401d4c:	b8 00 00 00 00       	mov    $0x0,%eax
  401d51:	e8 6a fd ff ff       	callq  401ac0 <check_fail>
  401d56:	39 3d a0 37 20 00    	cmp    %edi,0x2037a0(%rip)        # 6054fc <vlevel>
  401d5c:	74 18                	je     401d76 <validate+0x8c>
  401d5e:	bf 92 32 40 00       	mov    $0x403292,%edi
  401d63:	e8 c8 ef ff ff       	callq  400d30 <puts@plt>
  401d68:	89 de                	mov    %ebx,%esi
  401d6a:	bf 00 00 00 00       	mov    $0x0,%edi
  401d6f:	e8 cd fd ff ff       	callq  401b41 <notify_server>
  401d74:	eb af                	jmp    401d25 <validate+0x3b>
  401d76:	0f be 15 ab 43 20 00 	movsbl 0x2043ab(%rip),%edx        # 606128 <target_prefix>
  401d7d:	89 fe                	mov    %edi,%esi
  401d7f:	bf f8 33 40 00       	mov    $0x4033f8,%edi
  401d84:	b8 00 00 00 00       	mov    $0x0,%eax
  401d89:	e8 d2 ef ff ff       	callq  400d60 <printf@plt>
  401d8e:	89 de                	mov    %ebx,%esi
  401d90:	bf 01 00 00 00       	mov    $0x1,%edi
  401d95:	e8 a7 fd ff ff       	callq  401b41 <notify_server>
  401d9a:	eb 89                	jmp    401d25 <validate+0x3b>

0000000000401d9c <fail>:
  401d9c:	48 83 ec 08          	sub    $0x8,%rsp
  401da0:	83 3d 61 37 20 00 00 	cmpl   $0x0,0x203761(%rip)        # 605508 <is_checker>
  401da7:	75 11                	jne    401dba <fail+0x1e>
  401da9:	89 fe                	mov    %edi,%esi
  401dab:	bf 00 00 00 00       	mov    $0x0,%edi
  401db0:	e8 8c fd ff ff       	callq  401b41 <notify_server>
  401db5:	48 83 c4 08          	add    $0x8,%rsp
  401db9:	c3                   	retq   
  401dba:	b8 00 00 00 00       	mov    $0x0,%eax
  401dbf:	e8 fc fc ff ff       	callq  401ac0 <check_fail>

0000000000401dc4 <bushandler>:
  401dc4:	48 83 ec 08          	sub    $0x8,%rsp
  401dc8:	83 3d 39 37 20 00 00 	cmpl   $0x0,0x203739(%rip)        # 605508 <is_checker>
  401dcf:	74 14                	je     401de5 <bushandler+0x21>
  401dd1:	bf c5 32 40 00       	mov    $0x4032c5,%edi
  401dd6:	e8 55 ef ff ff       	callq  400d30 <puts@plt>
  401ddb:	b8 00 00 00 00       	mov    $0x0,%eax
  401de0:	e8 db fc ff ff       	callq  401ac0 <check_fail>
  401de5:	bf 30 34 40 00       	mov    $0x403430,%edi
  401dea:	e8 41 ef ff ff       	callq  400d30 <puts@plt>
  401def:	bf cf 32 40 00       	mov    $0x4032cf,%edi
  401df4:	e8 37 ef ff ff       	callq  400d30 <puts@plt>
  401df9:	be 00 00 00 00       	mov    $0x0,%esi
  401dfe:	bf 00 00 00 00       	mov    $0x0,%edi
  401e03:	e8 39 fd ff ff       	callq  401b41 <notify_server>
  401e08:	bf 01 00 00 00       	mov    $0x1,%edi
  401e0d:	e8 be f0 ff ff       	callq  400ed0 <exit@plt>

0000000000401e12 <seghandler>:
  401e12:	48 83 ec 08          	sub    $0x8,%rsp
  401e16:	83 3d eb 36 20 00 00 	cmpl   $0x0,0x2036eb(%rip)        # 605508 <is_checker>
  401e1d:	74 14                	je     401e33 <seghandler+0x21>
  401e1f:	bf e5 32 40 00       	mov    $0x4032e5,%edi
  401e24:	e8 07 ef ff ff       	callq  400d30 <puts@plt>
  401e29:	b8 00 00 00 00       	mov    $0x0,%eax
  401e2e:	e8 8d fc ff ff       	callq  401ac0 <check_fail>
  401e33:	bf 50 34 40 00       	mov    $0x403450,%edi
  401e38:	e8 f3 ee ff ff       	callq  400d30 <puts@plt>
  401e3d:	bf cf 32 40 00       	mov    $0x4032cf,%edi
  401e42:	e8 e9 ee ff ff       	callq  400d30 <puts@plt>
  401e47:	be 00 00 00 00       	mov    $0x0,%esi
  401e4c:	bf 00 00 00 00       	mov    $0x0,%edi
  401e51:	e8 eb fc ff ff       	callq  401b41 <notify_server>
  401e56:	bf 01 00 00 00       	mov    $0x1,%edi
  401e5b:	e8 70 f0 ff ff       	callq  400ed0 <exit@plt>

0000000000401e60 <illegalhandler>:
  401e60:	48 83 ec 08          	sub    $0x8,%rsp
  401e64:	83 3d 9d 36 20 00 00 	cmpl   $0x0,0x20369d(%rip)        # 605508 <is_checker>
  401e6b:	74 14                	je     401e81 <illegalhandler+0x21>
  401e6d:	bf f8 32 40 00       	mov    $0x4032f8,%edi
  401e72:	e8 b9 ee ff ff       	callq  400d30 <puts@plt>
  401e77:	b8 00 00 00 00       	mov    $0x0,%eax
  401e7c:	e8 3f fc ff ff       	callq  401ac0 <check_fail>
  401e81:	bf 78 34 40 00       	mov    $0x403478,%edi
  401e86:	e8 a5 ee ff ff       	callq  400d30 <puts@plt>
  401e8b:	bf cf 32 40 00       	mov    $0x4032cf,%edi
  401e90:	e8 9b ee ff ff       	callq  400d30 <puts@plt>
  401e95:	be 00 00 00 00       	mov    $0x0,%esi
  401e9a:	bf 00 00 00 00       	mov    $0x0,%edi
  401e9f:	e8 9d fc ff ff       	callq  401b41 <notify_server>
  401ea4:	bf 01 00 00 00       	mov    $0x1,%edi
  401ea9:	e8 22 f0 ff ff       	callq  400ed0 <exit@plt>

0000000000401eae <sigalrmhandler>:
  401eae:	48 83 ec 08          	sub    $0x8,%rsp
  401eb2:	83 3d 4f 36 20 00 00 	cmpl   $0x0,0x20364f(%rip)        # 605508 <is_checker>
  401eb9:	74 14                	je     401ecf <sigalrmhandler+0x21>
  401ebb:	bf 0c 33 40 00       	mov    $0x40330c,%edi
  401ec0:	e8 6b ee ff ff       	callq  400d30 <puts@plt>
  401ec5:	b8 00 00 00 00       	mov    $0x0,%eax
  401eca:	e8 f1 fb ff ff       	callq  401ac0 <check_fail>
  401ecf:	be 05 00 00 00       	mov    $0x5,%esi
  401ed4:	bf a8 34 40 00       	mov    $0x4034a8,%edi
  401ed9:	b8 00 00 00 00       	mov    $0x0,%eax
  401ede:	e8 7d ee ff ff       	callq  400d60 <printf@plt>
  401ee3:	be 00 00 00 00       	mov    $0x0,%esi
  401ee8:	bf 00 00 00 00       	mov    $0x0,%edi
  401eed:	e8 4f fc ff ff       	callq  401b41 <notify_server>
  401ef2:	bf 01 00 00 00       	mov    $0x1,%edi
  401ef7:	e8 d4 ef ff ff       	callq  400ed0 <exit@plt>

0000000000401efc <launch>:
  401efc:	55                   	push   %rbp
  401efd:	48 89 e5             	mov    %rsp,%rbp
  401f00:	48 89 fa             	mov    %rdi,%rdx
  401f03:	48 8d 47 1e          	lea    0x1e(%rdi),%rax
  401f07:	48 83 e0 f0          	and    $0xfffffffffffffff0,%rax
  401f0b:	48 29 c4             	sub    %rax,%rsp
  401f0e:	48 8d 7c 24 0f       	lea    0xf(%rsp),%rdi
  401f13:	48 83 e7 f0          	and    $0xfffffffffffffff0,%rdi
  401f17:	be f4 00 00 00       	mov    $0xf4,%esi
  401f1c:	e8 4f ee ff ff       	callq  400d70 <memset@plt>
  401f21:	48 8b 05 98 35 20 00 	mov    0x203598(%rip),%rax        # 6054c0 <stdin@@GLIBC_2.2.5>
  401f28:	48 39 05 c1 35 20 00 	cmp    %rax,0x2035c1(%rip)        # 6054f0 <infile>
  401f2f:	74 29                	je     401f5a <launch+0x5e>
  401f31:	c7 05 c1 35 20 00 00 	movl   $0x0,0x2035c1(%rip)        # 6054fc <vlevel>
  401f38:	00 00 00 
  401f3b:	b8 00 00 00 00       	mov    $0x0,%eax
  401f40:	e8 c4 f9 ff ff       	callq  401909 <test>
  401f45:	83 3d bc 35 20 00 00 	cmpl   $0x0,0x2035bc(%rip)        # 605508 <is_checker>
  401f4c:	75 1d                	jne    401f6b <launch+0x6f>
  401f4e:	bf 2c 33 40 00       	mov    $0x40332c,%edi
  401f53:	e8 d8 ed ff ff       	callq  400d30 <puts@plt>
  401f58:	c9                   	leaveq 
  401f59:	c3                   	retq   
  401f5a:	bf 14 33 40 00       	mov    $0x403314,%edi
  401f5f:	b8 00 00 00 00       	mov    $0x0,%eax
  401f64:	e8 f7 ed ff ff       	callq  400d60 <printf@plt>
  401f69:	eb c6                	jmp    401f31 <launch+0x35>
  401f6b:	bf 21 33 40 00       	mov    $0x403321,%edi
  401f70:	e8 bb ed ff ff       	callq  400d30 <puts@plt>
  401f75:	b8 00 00 00 00       	mov    $0x0,%eax
  401f7a:	e8 41 fb ff ff       	callq  401ac0 <check_fail>

0000000000401f7f <stable_launch>:
  401f7f:	53                   	push   %rbx
  401f80:	48 89 3d 61 35 20 00 	mov    %rdi,0x203561(%rip)        # 6054e8 <global_offset>
  401f87:	41 b9 00 00 00 00    	mov    $0x0,%r9d
  401f8d:	41 b8 00 00 00 00    	mov    $0x0,%r8d
  401f93:	b9 32 01 00 00       	mov    $0x132,%ecx
  401f98:	ba 07 00 00 00       	mov    $0x7,%edx
  401f9d:	be 00 00 10 00       	mov    $0x100000,%esi
  401fa2:	bf 00 60 58 55       	mov    $0x55586000,%edi
  401fa7:	e8 a4 ed ff ff       	callq  400d50 <mmap@plt>
  401fac:	48 89 c3             	mov    %rax,%rbx
  401faf:	48 3d 00 60 58 55    	cmp    $0x55586000,%rax
  401fb5:	75 43                	jne    401ffa <stable_launch+0x7b>
  401fb7:	48 8d 90 f8 ff 0f 00 	lea    0xffff8(%rax),%rdx
  401fbe:	48 89 15 6b 41 20 00 	mov    %rdx,0x20416b(%rip)        # 606130 <stack_top>
  401fc5:	48 89 e0             	mov    %rsp,%rax
  401fc8:	48 89 d4             	mov    %rdx,%rsp
  401fcb:	48 89 c2             	mov    %rax,%rdx
  401fce:	48 89 15 0b 35 20 00 	mov    %rdx,0x20350b(%rip)        # 6054e0 <global_save_stack>
  401fd5:	48 8b 3d 0c 35 20 00 	mov    0x20350c(%rip),%rdi        # 6054e8 <global_offset>
  401fdc:	e8 1b ff ff ff       	callq  401efc <launch>
  401fe1:	48 8b 05 f8 34 20 00 	mov    0x2034f8(%rip),%rax        # 6054e0 <global_save_stack>
  401fe8:	48 89 c4             	mov    %rax,%rsp
  401feb:	be 00 00 10 00       	mov    $0x100000,%esi
  401ff0:	48 89 df             	mov    %rbx,%rdi
  401ff3:	e8 68 ee ff ff       	callq  400e60 <munmap@plt>
  401ff8:	5b                   	pop    %rbx
  401ff9:	c3                   	retq   
  401ffa:	be 00 00 10 00       	mov    $0x100000,%esi
  401fff:	48 89 c7             	mov    %rax,%rdi
  402002:	e8 59 ee ff ff       	callq  400e60 <munmap@plt>
  402007:	ba 00 60 58 55       	mov    $0x55586000,%edx
  40200c:	be e0 34 40 00       	mov    $0x4034e0,%esi
  402011:	48 8b 3d b8 34 20 00 	mov    0x2034b8(%rip),%rdi        # 6054d0 <stderr@@GLIBC_2.2.5>
  402018:	b8 00 00 00 00       	mov    $0x0,%eax
  40201d:	e8 be ed ff ff       	callq  400de0 <fprintf@plt>
  402022:	bf 01 00 00 00       	mov    $0x1,%edi
  402027:	e8 a4 ee ff ff       	callq  400ed0 <exit@plt>

000000000040202c <rio_readinitb>:
  40202c:	89 37                	mov    %esi,(%rdi)
  40202e:	c7 47 04 00 00 00 00 	movl   $0x0,0x4(%rdi)
  402035:	48 8d 47 10          	lea    0x10(%rdi),%rax
  402039:	48 89 47 08          	mov    %rax,0x8(%rdi)
  40203d:	c3                   	retq   

000000000040203e <sigalrm_handler>:
  40203e:	48 83 ec 08          	sub    $0x8,%rsp
  402042:	ba 00 00 00 00       	m5fov    $0x0,%edx
  402047:	be 20 35 40 00       	mov    $0x403520,%esi
  40204c:	48 8b 3d 7d 34 20 00 	mov    0x20347d(%rip),%rdi        # 6054d0 <stderr@@GLIBC_2.2.5>
  402053:	b8 00 00 00 00       	mov    $0x0,%eax
  402058:	e8 83 ed ff ff       	callq  400de0 <fprintf@plt>
  40205d:	bf 01 00 00 00       	mov    $0x1,%edi
  402062:	e8 69 ee ff ff       	callq  400ed0 <exit@plt>

0000000000402067 <urlencode>:
  402067:	41 54                	push   %r12
  402069:	55                   	push   %rbp
  40206a:	53                   	push   %rbx
  40206b:	48 83 ec 10          	sub    $0x10,%rsp
  40206f:	48 89 fb             	mov    %rdi,%rbx
  402072:	48 89 f5             	mov    %rsi,%rbp
  402075:	48 c7 c1 ff ff ff ff 	mov    $0xffffffffffffffff,%rcx
  40207c:	b8 00 00 00 00       	mov    $0x0,%eax
  402081:	f2 ae                	repnz scas %es:(%rdi),%al
  402083:	48 89 ce             	mov    %rcx,%rsi
  402086:	48 f7 d6             	not    %rsi
  402089:	8d 46 ff             	lea    -0x1(%rsi),%eax
  40208c:	eb 0e                	jmp    40209c <urlencode+0x35>
  40208e:	88 45 00             	mov    %al,0x0(%rbp)
  402091:	48 8d 6d 01          	lea    0x1(%rbp),%rbp
  402095:	48 83 c3 01          	add    $0x1,%rbx
  402099:	44 89 e0             	mov    %r12d,%eax
  40209c:	44 8d 60 ff          	lea    -0x1(%rax),%r12d
  4020a0:	85 c0                	test   %eax,%eax
  4020a2:	0f 84 91 00 00 00    	je     402139 <urlencode+0xd2>
  4020a8:	0f b6 03             	movzbl (%rbx),%eax
  4020ab:	3c 2a                	cmp    $0x2a,%al
  4020ad:	0f 94 c1             	sete   %cl
  4020b0:	3c 2d                	cmp    $0x2d,%al
  4020b2:	0f 94 c2             	sete   %dl
  4020b5:	08 d1                	or     %dl,%cl
  4020b7:	75 d5                	jne    40208e <urlencode+0x27>
  4020b9:	3c 2e                	cmp    $0x2e,%al
  4020bb:	74 d1                	je     40208e <urlencode+0x27>
  4020bd:	3c 5f                	cmp    $0x5f,%al
  4020bf:	74 cd                	je     40208e <urlencode+0x27>
  4020c1:	8d 50 d0             	lea    -0x30(%rax),%edx
  4020c4:	80 fa 09             	cmp    $0x9,%dl
  4020c7:	76 c5                	jbe    40208e <urlencode+0x27>
  4020c9:	8d 50 bf             	lea    -0x41(%rax),%edx
  4020cc:	80 fa 19             	cmp    $0x19,%dl
  4020cf:	76 bd                	jbe    40208e <urlencode+0x27>
  4020d1:	8d 50 9f             	lea    -0x61(%rax),%edx
  4020d4:	80 fa 19             	cmp    $0x19,%dl
  4020d7:	76 b5                	jbe    40208e <urlencode+0x27>
  4020d9:	3c 20                	cmp    $0x20,%al
  4020db:	74 4a                	je     402127 <urlencode+0xc0>
  4020dd:	8d 50 e0             	lea    -0x20(%rax),%edx
  4020e0:	80 fa 5f             	cmp    $0x5f,%dl
  4020e3:	0f 96 c1             	setbe  %cl
  4020e6:	3c 09                	cmp    $0x9,%al
  4020e8:	0f 94 c2             	sete   %dl
  4020eb:	08 d1                	or     %dl,%cl
  4020ed:	74 45                	je     402134 <urlencode+0xcd>
  4020ef:	0f b6 d0             	movzbl %al,%edx
  4020f2:	be b8 35 40 00       	mov    $0x4035b8,%esi
  4020f7:	48 8d 7c 24 08       	lea    0x8(%rsp),%rdi
  4020fc:	b8 00 00 00 00       	mov    $0x0,%eax
  402101:	e8 ba ed ff ff       	callq  400ec0 <sprintf@plt>
  402106:	0f b6 44 24 08       	movzbl 0x8(%rsp),%eax
  40210b:	88 45 00             	mov    %al,0x0(%rbp)
  40210e:	0f b6 44 24 09       	movzbl 0x9(%rsp),%eax
  402113:	88 45 01             	mov    %al,0x1(%rbp)
  402116:	0f b6 44 24 0a       	movzbl 0xa(%rsp),%eax
  40211b:	88 45 02             	mov    %al,0x2(%rbp)
  40211e:	48 8d 6d 03          	lea    0x3(%rbp),%rbp
  402122:	e9 6e ff ff ff       	jmpq   402095 <urlencode+0x2e>
  402127:	c6 45 00 2b          	movb   $0x2b,0x0(%rbp)
  40212b:	48 8d 6d 01          	lea    0x1(%rbp),%rbp
  40212f:	e9 61 ff ff ff       	jmpq   402095 <urlencode+0x2e>
  402134:	b8 ff ff ff ff       	mov    $0xffffffff,%eax
  402139:	48 83 c4 10          	add    $0x10,%rsp
  40213d:	5b                   	pop    %rbx
  40213e:	5d                   	pop    %rbp
  40213f:	41 5c                	pop    %r12
  402141:	c3                   	retq   

0000000000402142 <rio_writen>:
  402142:	41 55                	push   %r13
  402144:	41 54                	push   %r12
  402146:	55                   	push   %rbp
  402147:	53                   	push   %rbx
  402148:	48 83 ec 08          	sub    $0x8,%rsp
  40214c:	41 89 fc             	mov    %edi,%r12d
  40214f:	48 89 f5             	mov    %rsi,%rbp
  402152:	49 89 d5             	mov    %rdx,%r13
  402155:	48 89 d3             	mov    %rdx,%rbx
  402158:	eb 06                	jmp    402160 <rio_writen+0x1e>
  40215a:	48 29 c3             	sub    %rax,%rbx
  40215d:	48 01 c5             	add    %rax,%rbp
  402160:	48 85 db             	test   %rbx,%rbx
  402163:	74 24                	je     402189 <rio_writen+0x47>
  402165:	48 89 da             	mov    %rbx,%rdx
  402168:	48 89 ee             	mov    %rbp,%rsi
  40216b:	44 89 e7             	mov    %r12d,%edi
  40216e:	e8 cd eb ff ff       	callq  400d40 <write@plt>
  402173:	48 85 c0             	test   %rax,%rax
  402176:	7f e2                	jg     40215a <rio_writen+0x18>
  402178:	e8 73 eb ff ff       	callq  400cf0 <__errno_location@plt>
  40217d:	83 38 04             	cmpl   $0x4,(%rax)
  402180:	75 15                	jne    402197 <rio_writen+0x55>
  402182:	b8 00 00 00 00       	mov    $0x0,%eax
  402187:	eb d1                	jmp    40215a <rio_writen+0x18>
  402189:	4c 89 e8             	mov    %r13,%rax
  40218c:	48 83 c4 08          	add    $0x8,%rsp
  402190:	5b                   	pop    %rbx
  402191:	5d                   	pop    %rbp
  402192:	41 5c                	pop    %r12
  402194:	41 5d                	pop    %r13
  402196:	c3                   	retq   
  402197:	48 c7 c0 ff ff ff ff 	mov    $0xffffffffffffffff,%rax
  40219e:	eb ec                	jmp    40218c <rio_writen+0x4a>

00000000004021a0 <rio_read>:
  4021a0:	41 55                	push   %r13
  4021a2:	41 54                	push   %r12
  4021a4:	55                   	push   %rbp
  4021a5:	53                   	push   %rbx
  4021a6:	48 83 ec 08          	sub    $0x8,%rsp
  4021aa:	48 89 fb             	mov    %rdi,%rbx
  4021ad:	49 89 f5             	mov    %rsi,%r13
  4021b0:	49 89 d4             	mov    %rdx,%r12
  4021b3:	eb 0a                	jmp    4021bf <rio_read+0x1f>
  4021b5:	e8 36 eb ff ff       	callq  400cf0 <__errno_location@plt>
  4021ba:	83 38 04             	cmpl   $0x4,(%rax)
  4021bd:	75 5c                	jne    40221b <rio_read+0x7b>
  4021bf:	8b 6b 04             	mov    0x4(%rbx),%ebp
  4021c2:	85 ed                	test   %ebp,%ebp
  4021c4:	7f 24                	jg     4021ea <rio_read+0x4a>
  4021c6:	48 8d 6b 10          	lea    0x10(%rbx),%rbp
  4021ca:	ba 00 20 00 00       	mov    $0x2000,%edx
  4021cf:	48 89 ee             	mov    %rbp,%rsi
  4021d2:	8b 3b                	mov    (%rbx),%edi
  4021d4:	e8 c7 eb ff ff       	callq  400da0 <read@plt>
  4021d9:	89 43 04             	mov    %eax,0x4(%rbx)
  4021dc:	85 c0                	test   %eax,%eax
  4021de:	78 d5                	js     4021b5 <rio_read+0x15>
  4021e0:	85 c0                	test   %eax,%eax
  4021e2:	74 40                	je     402224 <rio_read+0x84>
  4021e4:	48 89 6b 08          	mov    %rbp,0x8(%rbx)
  4021e8:	eb d5                	jmp    4021bf <rio_read+0x1f>
  4021ea:	89 e8                	mov    %ebp,%eax
  4021ec:	4c 39 e0             	cmp    %r12,%rax
  4021ef:	72 03                	jb     4021f4 <rio_read+0x54>
  4021f1:	44 89 e5             	mov    %r12d,%ebp
  4021f4:	4c 63 e5             	movslq %ebp,%r12
  4021f7:	48 8b 73 08          	mov    0x8(%rbx),%rsi
  4021fb:	4c 89 e2             	mov    %r12,%rdx
  4021fe:	4c 89 ef             	mov    %r13,%rdi
  402201:	e8 0a ec ff ff       	callq  400e10 <memcpy@plt>
  402206:	4c 01 63 08          	add    %r12,0x8(%rbx)
  40220a:	29 6b 04             	sub    %ebp,0x4(%rbx)
  40220d:	4c 89 e0             	mov    %r12,%rax
  402210:	48 83 c4 08          	add    $0x8,%rsp
  402214:	5b                   	pop    %rbx
  402215:	5d                   	pop    %rbp
  402216:	41 5c                	pop    %r12
  402218:	41 5d                	pop    %r13
  40221a:	c3                   	retq   
  40221b:	48 c7 c0 ff ff ff ff 	mov    $0xffffffffffffffff,%rax
  402222:	eb ec                	jmp    402210 <rio_read+0x70>
  402224:	b8 00 00 00 00       	mov    $0x0,%eax
  402229:	eb e5                	jmp    402210 <rio_read+0x70>

000000000040222b <rio_readlineb>:
  40222b:	41 55                	push   %r13
  40222d:	41 54                	push   %r12
  40222f:	55                   	push   %rbp
  402230:	53                   	push   %rbx
  402231:	48 83 ec 18          	sub    $0x18,%rsp
  402235:	49 89 fd             	mov    %rdi,%r13
  402238:	48 89 f5             	mov    %rsi,%rbp
  40223b:	49 89 d4             	mov    %rdx,%r12
  40223e:	bb 01 00 00 00       	mov    $0x1,%ebx
  402243:	4c 39 e3             	cmp    %r12,%rbx
  402246:	73 47                	jae    40228f <rio_readlineb+0x64>
  402248:	ba 01 00 00 00       	mov    $0x1,%edx
  40224d:	48 8d 74 24 0f       	lea    0xf(%rsp),%rsi
  402252:	4c 89 ef             	mov    %r13,%rdi
  402255:	e8 46 ff ff ff       	callq  4021a0 <rio_read>
  40225a:	83 f8 01             	cmp    $0x1,%eax
  40225d:	75 1c                	jne    40227b <rio_readlineb+0x50>
  40225f:	48 8d 45 01          	lea    0x1(%rbp),%rax
  402263:	0f b6 54 24 0f       	movzbl 0xf(%rsp),%edx
  402268:	88 55 00             	mov    %dl,0x0(%rbp)
  40226b:	80 7c 24 0f 0a       	cmpb   $0xa,0xf(%rsp)
  402270:	74 1a                	je     40228c <rio_readlineb+0x61>
  402272:	48 83 c3 01          	add    $0x1,%rbx
  402276:	48 89 c5             	mov    %rax,%rbp
  402279:	eb c8                	jmp    402243 <rio_readlineb+0x18>
  40227b:	85 c0                	test   %eax,%eax
  40227d:	75 22                	jne    4022a1 <rio_readlineb+0x76>
  40227f:	48 83 fb 01          	cmp    $0x1,%rbx
  402283:	75 0a                	jne    40228f <rio_readlineb+0x64>
  402285:	b8 00 00 00 00       	mov    $0x0,%eax
  40228a:	eb 0a                	jmp    402296 <rio_readlineb+0x6b>
  40228c:	48 89 c5             	mov    %rax,%rbp
  40228f:	c6 45 00 00          	movb   $0x0,0x0(%rbp)
  402293:	48 89 d8             	mov    %rbx,%rax
  402296:	48 83 c4 18          	add    $0x18,%rsp
  40229a:	5b                   	pop    %rbx
  40229b:	5d                   	pop    %rbp
  40229c:	41 5c                	pop    %r12
  40229e:	41 5d                	pop    %r13
  4022a0:	c3                   	retq   
  4022a1:	48 c7 c0 ff ff ff ff 	mov    $0xffffffffffffffff,%rax
  4022a8:	eb ec                	jmp    402296 <rio_readlineb+0x6b>

00000000004022aa <submitr>:
  4022aa:	41 57                	push   %r15
  4022ac:	41 56                	push   %r14
  4022ae:	41 55                	push   %r13
  4022b0:	41 54                	push   %r12
  4022b2:	55                   	push   %rbp
  4022b3:	53                   	push   %rbx
  4022b4:	48 81 ec 48 a0 00 00 	sub    $0xa048,%rsp
  4022bb:	49 89 fc             	mov    %rdi,%r12
  4022be:	89 74 24 04          	mov    %esi,0x4(%rsp)
  4022c2:	49 89 d7             	mov    %rdx,%r15
  4022c5:	49 89 ce             	mov    %rcx,%r14
  4022c8:	4c 89 44 24 08       	mov    %r8,0x8(%rsp)
  4022cd:	4d 89 cd             	mov    %r9,%r13
  4022d0:	48 8b ac 24 80 a0 00 	mov    0xa080(%rsp),%rbp
  4022d7:	00 
  4022d8:	c7 84 24 1c 20 00 00 	movl   $0x0,0x201c(%rsp)
  4022df:	00 00 00 00 
  4022e3:	ba 00 00 00 00       	mov    $0x0,%edx
  4022e8:	be 01 00 00 00       	mov    $0x1,%esi
  4022ed:	bf 02 00 00 00       	mov    $0x2,%edi
  4022f2:	e8 f9 eb ff ff       	callq  400ef0 <socket@plt>
  4022f7:	85 c0                	test   %eax,%eax
  4022f9:	0f 88 c4 01 00 00    	js     4024c3 <submitr+0x219>
  4022ff:	89 c3                	mov    %eax,%ebx
  402301:	4c 89 e7             	mov    %r12,%rdi
  402304:	e8 c7 ea ff ff       	callq  400dd0 <gethostbyname@plt>
  402309:	48 85 c0             	test   %rax,%rax
  40230c:	0f 84 00 02 00 00    	je     402512 <submitr+0x268>
  402312:	48 c7 84 24 30 a0 00 	movq   $0x0,0xa030(%rsp)
  402319:	00 00 00 00 00 
  40231e:	48 c7 84 24 38 a0 00 	movq   $0x0,0xa038(%rsp)
  402325:	00 00 00 00 00 
  40232a:	66 c7 84 24 30 a0 00 	movw   $0x2,0xa030(%rsp)
  402331:	00 02 00 
  402334:	48 8b 48 18          	mov    0x18(%rax),%rcx
  402338:	48 63 50 14          	movslq 0x14(%rax),%rdx
  40233c:	48 8d b4 24 34 a0 00 	lea    0xa034(%rsp),%rsi
  402343:	00 
  402344:	48 8b 39             	mov    (%rcx),%rdi
  402347:	e8 24 eb ff ff       	callq  400e70 <bcopy@plt>
  40234c:	0f b7 44 24 04       	movzwl 0x4(%rsp),%eax
  402351:	66 c1 c8 08          	ror    $0x8,%ax
  402355:	66 89 84 24 32 a0 00 	mov    %ax,0xa032(%rsp)
  40235c:	00 
  40235d:	ba 10 00 00 00       	mov    $0x10,%edx
  402362:	48 8d b4 24 30 a0 00 	lea    0xa030(%rsp),%rsi
  402369:	00 
  40236a:	89 df                	mov    %ebx,%edi
  40236c:	e8 6f eb ff ff       	callq  400ee0 <connect@plt>
  402371:	85 c0                	test   %eax,%eax
  402373:	0f 88 01 02 00 00    	js     40257a <submitr+0x2d0>
  402379:	48 c7 c6 ff ff ff ff 	mov    $0xffffffffffffffff,%rsi
  402380:	b8 00 00 00 00       	mov    $0x0,%eax
  402385:	48 89 f1             	mov    %rsi,%rcx
  402388:	4c 89 ef             	mov    %r13,%rdi
  40238b:	f2 ae                	repnz scas %es:(%rdi),%al
  40238d:	48 89 ca             	mov    %rcx,%rdx
  402390:	48 f7 d2             	not    %rdx
  402393:	48 89 f1             	mov    %rsi,%rcx
  402396:	4c 89 ff             	mov    %r15,%rdi
  402399:	f2 ae                	repnz scas %es:(%rdi),%al
  40239b:	48 f7 d1             	not    %rcx
  40239e:	49 89 c8             	mov    %rcx,%r8
  4023a1:	48 89 f1             	mov    %rsi,%rcx
  4023a4:	4c 89 f7             	mov    %r14,%rdi
  4023a7:	f2 ae                	repnz scas %es:(%rdi),%al
  4023a9:	48 f7 d1             	not    %rcx
  4023ac:	4d 8d 44 08 fe       	lea    -0x2(%r8,%rcx,1),%r8
  4023b1:	48 89 f1             	mov    %rsi,%rcx
  4023b4:	48 8b 7c 24 08       	mov    0x8(%rsp),%rdi
  4023b9:	f2 ae                	repnz scas %es:(%rdi),%al
  4023bb:	48 89 c8             	mov    %rcx,%rax
  4023be:	48 f7 d0             	not    %rax
  4023c1:	49 8d 4c 00 ff       	lea    -0x1(%r8,%rax,1),%rcx
  4023c6:	48 8d 44 52 fd       	lea    -0x3(%rdx,%rdx,2),%rax
  4023cb:	48 8d 84 01 80 00 00 	lea    0x80(%rcx,%rax,1),%rax
  4023d2:	00 
  4023d3:	48 3d 00 20 00 00    	cmp    $0x2000,%rax
  4023d9:	0f 87 f5 01 00 00    	ja     4025d4 <submitr+0x32a>
  4023df:	48 8d b4 24 20 40 00 	lea    0x4020(%rsp),%rsi
  4023e6:	00 
  4023e7:	b9 00 04 00 00       	mov    $0x400,%ecx
  4023ec:	b8 00 00 00 00       	mov    $0x0,%eax
  4023f1:	48 89 f7             	mov    %rsi,%rdi
  4023f4:	f3 48 ab             	rep stos %rax,%es:(%rdi)
  4023f7:	4c 89 ef             	mov    %r13,%rdi
  4023fa:	e8 68 fc ff ff       	callq  402067 <urlencode>
  4023ff:	85 c0                	test   %eax,%eax
  402401:	0f 88 40 02 00 00    	js     402647 <submitr+0x39d>
  402407:	4c 8d ac 24 20 60 00 	lea    0x6020(%rsp),%r13
  40240e:	00 
  40240f:	4d 89 e1             	mov    %r12,%r9
  402412:	4c 8d 84 24 20 40 00 	lea    0x4020(%rsp),%r8
  402419:	00 
  40241a:	4c 89 f9             	mov    %r15,%rcx
  40241d:	4c 89 f2             	mov    %r14,%rdx
  402420:	be 48 35 40 00       	mov    $0x403548,%esi
  402425:	4c 89 ef             	mov    %r13,%rdi
  402428:	b8 00 00 00 00       	mov    $0x0,%eax
  40242d:	e8 8e ea ff ff       	callq  400ec0 <sprintf@plt>
  402432:	48 c7 c1 ff ff ff ff 	mov    $0xffffffffffffffff,%rcx
  402439:	b8 00 00 00 00       	mov    $0x0,%eax
  40243e:	4c 89 ef             	mov    %r13,%rdi
  402441:	f2 ae                	repnz scas %es:(%rdi),%al
  402443:	48 89 ca             	mov    %rcx,%rdx
  402446:	48 f7 d2             	not    %rdx
  402449:	48 8d 52 ff          	lea    -0x1(%rdx),%rdx
  40244d:	4c 89 ee             	mov    %r13,%rsi
  402450:	89 df                	mov    %ebx,%edi
  402452:	e8 eb fc ff ff       	callq  402142 <rio_writen>
  402457:	48 85 c0             	test   %rax,%rax
  40245a:	0f 88 72 02 00 00    	js     4026d2 <submitr+0x428>
  402460:	89 de                	mov    %ebx,%esi
  402462:	48 8d bc 24 20 80 00 	lea    0x8020(%rsp),%rdi
  402469:	00 
  40246a:	e8 bd fb ff ff       	callq  40202c <rio_readinitb>
  40246f:	ba 00 20 00 00       	mov    $0x2000,%edx
  402474:	48 8d b4 24 20 60 00 	lea    0x6020(%rsp),%rsi
  40247b:	00 
  40247c:	48 8d bc 24 20 80 00 	lea    0x8020(%rsp),%rdi
  402483:	00 
  402484:	e8 a2 fd ff ff       	callq  40222b <rio_readlineb>
  402489:	48 85 c0             	test   %rax,%rax
  40248c:	0f 8e af 02 00 00    	jle    402741 <submitr+0x497>
  402492:	4c 8d 44 24 10       	lea    0x10(%rsp),%r8
  402497:	48 8d 8c 24 1c 20 00 	lea    0x201c(%rsp),%rcx
  40249e:	00 
  40249f:	48 8d 94 24 20 20 00 	lea    0x2020(%rsp),%rdx
  4024a6:	00 
  4024a7:	be bf 35 40 00       	mov    $0x4035bf,%esi
  4024ac:	48 8d bc 24 20 60 00 	lea    0x6020(%rsp),%rdi
  4024b3:	00 
  4024b4:	b8 00 00 00 00       	mov    $0x0,%eax
  4024b9:	e8 92 e9 ff ff       	callq  400e50 <__isoc99_sscanf@plt>
  4024be:	e9 a7 03 00 00       	jmpq   40286a <submitr+0x5c0>
  4024c3:	48 b8 45 72 72 6f 72 	movabs $0x43203a726f727245,%rax
  4024ca:	3a 20 43 
  4024cd:	48 ba 6c 69 65 6e 74 	movabs $0x6e7520746e65696c,%rdx
  4024d4:	20 75 6e 
  4024d7:	48 89 45 00          	mov    %rax,0x0(%rbp)
  4024db:	48 89 55 08          	mov    %rdx,0x8(%rbp)
  4024df:	48 b8 61 62 6c 65 20 	movabs $0x206f7420656c6261,%rax
  4024e6:	74 6f 20 
  4024e9:	48 ba 63 72 65 61 74 	movabs $0x7320657461657263,%rdx
  4024f0:	65 20 73 
  4024f3:	48 89 45 10          	mov    %rax,0x10(%rbp)
  4024f7:	48 89 55 18          	mov    %rdx,0x18(%rbp)
  4024fb:	c7 45 20 6f 63 6b 65 	movl   $0x656b636f,0x20(%rbp)
  402502:	66 c7 45 24 74 00    	movw   $0x74,0x24(%rbp)
  402508:	b8 ff ff ff ff       	mov    $0xffffffff,%eax
  40250d:	e9 1f 03 00 00       	jmpq   402831 <submitr+0x587>
  402512:	48 b8 45 72 72 6f 72 	movabs $0x44203a726f727245,%rax
  402519:	3a 20 44 
  40251c:	48 ba 4e 53 20 69 73 	movabs $0x6e7520736920534e,%rdx
  402523:	20 75 6e 
  402526:	48 89 45 00          	mov    %rax,0x0(%rbp)
  40252a:	48 89 55 08          	mov    %rdx,0x8(%rbp)
  40252e:	48 b8 61 62 6c 65 20 	movabs $0x206f7420656c6261,%rax
  402535:	74 6f 20 
  402538:	48 ba 72 65 73 6f 6c 	movabs $0x2065766c6f736572,%rdx
  40253f:	76 65 20 
  402542:	48 89 45 10          	mov    %rax,0x10(%rbp)
  402546:	48 89 55 18          	mov    %rdx,0x18(%rbp)
  40254a:	48 b8 73 65 72 76 65 	movabs $0x6120726576726573,%rax
  402551:	72 20 61 
  402554:	48 89 45 20          	mov    %rax,0x20(%rbp)
  402558:	c7 45 28 64 64 72 65 	movl   $0x65726464,0x28(%rbp)
  40255f:	66 c7 45 2c 73 73    	movw   $0x7373,0x2c(%rbp)
  402565:	c6 45 2e 00          	movb   $0x0,0x2e(%rbp)
  402569:	89 df                	mov    %ebx,%edi
  40256b:	e8 20 e8 ff ff       	callq  400d90 <close@plt>
  402570:	b8 ff ff ff ff       	mov    $0xffffffff,%eax
  402575:	e9 b7 02 00 00       	jmpq   402831 <submitr+0x587>
  40257a:	48 b8 45 72 72 6f 72 	movabs $0x55203a726f727245,%rax
  402581:	3a 20 55 
  402584:	48 ba 6e 61 62 6c 65 	movabs $0x6f7420656c62616e,%rdx
  40258b:	20 74 6f 
  40258e:	48 89 45 00          	mov    %rax,0x0(%rbp)
  402592:	48 89 55 08          	mov    %rdx,0x8(%rbp)
  402596:	48 b8 20 63 6f 6e 6e 	movabs $0x7463656e6e6f6320,%rax
  40259d:	65 63 74 
  4025a0:	48 ba 20 74 6f 20 74 	movabs $0x20656874206f7420,%rdx
  4025a7:	68 65 20 
  4025aa:	48 89 45 10          	mov    %rax,0x10(%rbp)
  4025ae:	48 89 55 18          	mov    %rdx,0x18(%rbp)
  4025b2:	c7 45 20 73 65 72 76 	movl   $0x76726573,0x20(%rbp)
  4025b9:	66 c7 45 24 65 72    	movw   $0x7265,0x24(%rbp)
  4025bf:	c6 45 26 00          	movb   $0x0,0x26(%rbp)
  4025c3:	89 df                	mov    %ebx,%edi
  4025c5:	e8 c6 e7 ff ff       	callq  400d90 <close@plt>
  4025ca:	b8 ff ff ff ff       	mov    $0xffffffff,%eax
  4025cf:	e9 5d 02 00 00       	jmpq   402831 <submitr+0x587>
  4025d4:	48 b8 45 72 72 6f 72 	movabs $0x52203a726f727245,%rax
  4025db:	3a 20 52 
  4025de:	48 ba 65 73 75 6c 74 	movabs $0x747320746c757365,%rdx
  4025e5:	20 73 74 
  4025e8:	48 89 45 00          	mov    %rax,0x0(%rbp)
  4025ec:	48 89 55 08          	mov    %rdx,0x8(%rbp)
  4025f0:	48 b8 72 69 6e 67 20 	movabs $0x6f6f7420676e6972,%rax
  4025f7:	74 6f 6f 
  4025fa:	48 ba 20 6c 61 72 67 	movabs $0x202e656772616c20,%rdx
  402601:	65 2e 20 
  402604:	48 89 45 10          	mov    %rax,0x10(%rbp)
  402608:	48 89 55 18          	mov    %rdx,0x18(%rbp)
  40260c:	48 b8 49 6e 63 72 65 	movabs $0x6573616572636e49,%rax
  402613:	61 73 65 
  402616:	48 ba 20 53 55 42 4d 	movabs $0x5254494d42555320,%rdx
  40261d:	49 54 52 
  402620:	48 89 45 20          	mov    %rax,0x20(%rbp)
  402624:	48 89 55 28          	mov    %rdx,0x28(%rbp)
  402628:	48 b8 5f 4d 41 58 42 	movabs $0x46554258414d5f,%rax
  40262f:	55 46 00 
  402632:	48 89 45 30          	mov    %rax,0x30(%rbp)
  402636:	89 df                	mov    %ebx,%edi
  402638:	e8 53 e7 ff ff       	callq  400d90 <close@plt>
  40263d:	b8 ff ff ff ff       	mov    $0xffffffff,%eax
  402642:	e9 ea 01 00 00       	jmpq   402831 <submitr+0x587>
  402647:	48 b8 45 72 72 6f 72 	movabs $0x52203a726f727245,%rax
  40264e:	3a 20 52 
  402651:	48 ba 65 73 75 6c 74 	movabs $0x747320746c757365,%rdx
  402658:	20 73 74 
  40265b:	48 89 45 00          	mov    %rax,0x0(%rbp)
  40265f:	48 89 55 08          	mov    %rdx,0x8(%rbp)
  402663:	48 b8 72 69 6e 67 20 	movabs $0x6e6f6320676e6972,%rax
  40266a:	63 6f 6e 
  40266d:	48 ba 74 61 69 6e 73 	movabs $0x6e6120736e696174,%rdx
  402674:	20 61 6e 
  402677:	48 89 45 10          	mov    %rax,0x10(%rbp)
  40267b:	48 89 55 18          	mov    %rdx,0x18(%rbp)
  40267f:	48 b8 20 69 6c 6c 65 	movabs $0x6c6167656c6c6920,%rax
  402686:	67 61 6c 
  402689:	48 ba 20 6f 72 20 75 	movabs $0x72706e7520726f20,%rdx
  402690:	6e 70 72 
  402693:	48 89 45 20          	mov    %rax,0x20(%rbp)
  402697:	48 89 55 28          	mov    %rdx,0x28(%rbp)
  40269b:	48 b8 69 6e 74 61 62 	movabs $0x20656c6261746e69,%rax
  4026a2:	6c 65 20 
  4026a5:	48 ba 63 68 61 72 61 	movabs $0x6574636172616863,%rdx
  4026ac:	63 74 65 
  4026af:	48 89 45 30          	mov    %rax,0x30(%rbp)
  4026b3:	48 89 55 38          	mov    %rdx,0x38(%rbp)
  4026b7:	66 c7 45 40 72 2e    	movw   $0x2e72,0x40(%rbp)
  4026bd:	c6 45 42 00          	movb   $0x0,0x42(%rbp)
  4026c1:	89 df                	mov    %ebx,%edi
  4026c3:	e8 c8 e6 ff ff       	callq  400d90 <close@plt>
  4026c8:	b8 ff ff ff ff       	mov    $0xffffffff,%eax
  4026cd:	e9 5f 01 00 00       	jmpq   402831 <submitr+0x587>
  4026d2:	48 b8 45 72 72 6f 72 	movabs $0x43203a726f727245,%rax
  4026d9:	3a 20 43 
  4026dc:	48 ba 6c 69 65 6e 74 	movabs $0x6e7520746e65696c,%rdx
  4026e3:	20 75 6e 
  4026e6:	48 89 45 00          	mov    %rax,0x0(%rbp)
  4026ea:	48 89 55 08          	mov    %rdx,0x8(%rbp)
  4026ee:	48 b8 61 62 6c 65 20 	movabs $0x206f7420656c6261,%rax
  4026f5:	74 6f 20 
  4026f8:	48 ba 77 72 69 74 65 	movabs $0x6f74206574697277,%rdx
  4026ff:	20 74 6f 
  402702:	48 89 45 10          	mov    %rax,0x10(%rbp)
  402706:	48 89 55 18          	mov    %rdx,0x18(%rbp)
  40270a:	48 b8 20 74 68 65 20 	movabs $0x7365722065687420,%rax
  402711:	72 65 73 
  402714:	48 ba 75 6c 74 20 73 	movabs $0x7672657320746c75,%rdx
  40271b:	65 72 76 
  40271e:	48 89 45 20          	mov    %rax,0x20(%rbp)
  402722:	48 89 55 28          	mov    %rdx,0x28(%rbp)
  402726:	66 c7 45 30 65 72    	movw   $0x7265,0x30(%rbp)
  40272c:	c6 45 32 00          	movb   $0x0,0x32(%rbp)
  402730:	89 df                	mov    %ebx,%edi
  402732:	e8 59 e6 ff ff       	callq  400d90 <close@plt>
  402737:	b8 ff ff ff ff       	mov    $0xffffffff,%eax
  40273c:	e9 f0 00 00 00       	jmpq   402831 <submitr+0x587>
  402741:	48 b8 45 72 72 6f 72 	movabs $0x43203a726f727245,%rax
  402748:	3a 20 43 
  40274b:	48 ba 6c 69 65 6e 74 	movabs $0x6e7520746e65696c,%rdx
  402752:	20 75 6e 
  402755:	48 89 45 00          	mov    %rax,0x0(%rbp)
  402759:	48 89 55 08          	mov    %rdx,0x8(%rbp)
  40275d:	48 b8 61 62 6c 65 20 	movabs $0x206f7420656c6261,%rax
  402764:	74 6f 20 
  402767:	48 ba 72 65 61 64 20 	movabs $0x7269662064616572,%rdx
  40276e:	66 69 72 
  402771:	48 89 45 10          	mov    %rax,0x10(%rbp)
  402775:	48 89 55 18          	mov    %rdx,0x18(%rbp)
  402779:	48 b8 73 74 20 68 65 	movabs $0x6564616568207473,%rax
  402780:	61 64 65 
  402783:	48 ba 72 20 66 72 6f 	movabs $0x72206d6f72662072,%rdx
  40278a:	6d 20 72 
  40278d:	48 89 45 20          	mov    %rax,0x20(%rbp)
  402791:	48 89 55 28          	mov    %rdx,0x28(%rbp)
  402795:	48 b8 65 73 75 6c 74 	movabs $0x657320746c757365,%rax
  40279c:	20 73 65 
  40279f:	48 89 45 30          	mov    %rax,0x30(%rbp)
  4027a3:	c7 45 38 72 76 65 72 	movl   $0x72657672,0x38(%rbp)
  4027aa:	c6 45 3c 00          	movb   $0x0,0x3c(%rbp)
  4027ae:	89 df                	mov    %ebx,%edi
  4027b0:	e8 db e5 ff ff       	callq  400d90 <close@plt>
  4027b5:	b8 ff ff ff ff       	mov    $0xffffffff,%eax
  4027ba:	eb 75                	jmp    402831 <submitr+0x587>
  4027bc:	48 b8 45 72 72 6f 72 	movabs $0x43203a726f727245,%rax
  4027c3:	3a 20 43 
  4027c6:	48 ba 6c 69 65 6e 74 	movabs $0x6e7520746e65696c,%rdx
  4027cd:	20 75 6e 
  4027d0:	48 89 45 00          	mov    %rax,0x0(%rbp)
  4027d4:	48 89 55 08          	mov    %rdx,0x8(%rbp)
  4027d8:	48 b8 61 62 6c 65 20 	movabs $0x206f7420656c6261,%rax
  4027df:	74 6f 20 
  4027e2:	48 ba 72 65 61 64 20 	movabs $0x6165682064616572,%rdx
  4027e9:	68 65 61 
  4027ec:	48 89 45 10          	mov    %rax,0x10(%rbp)
  4027f0:	48 89 55 18          	mov    %rdx,0x18(%rbp)
  4027f4:	48 b8 64 65 72 73 20 	movabs $0x6f72662073726564,%rax
  4027fb:	66 72 6f 
  4027fe:	48 ba 6d 20 74 68 65 	movabs $0x657220656874206d,%rdx
  402805:	20 72 65 
  402808:	48 89 45 20          	mov    %rax,0x20(%rbp)
  40280c:	48 89 55 28          	mov    %rdx,0x28(%rbp)
  402810:	48 b8 73 75 6c 74 20 	movabs $0x72657320746c7573,%rax
  402817:	73 65 72 
  40281a:	48 89 45 30          	mov    %rax,0x30(%rbp)
  40281e:	c7 45 38 76 65 72 00 	movl   $0x726576,0x38(%rbp)
  402825:	89 df                	mov    %ebx,%edi
  402827:	e8 64 e5 ff ff       	callq  400d90 <close@plt>
  40282c:	b8 ff ff ff ff       	mov    $0xffffffff,%eax
  402831:	48 81 c4 48 a0 00 00 	add    $0xa048,%rsp
  402838:	5b                   	pop    %rbx
  402839:	5d                   	pop    %rbp
  40283a:	41 5c                	pop    %r12
  40283c:	41 5d                	pop    %r13
  40283e:	41 5e                	pop    %r14
  402840:	41 5f                	pop    %r15
  402842:	c3                   	retq   
  402843:	85 c0                	test   %eax,%eax
  402845:	74 47                	je     40288e <submitr+0x5e4>
  402847:	ba 00 20 00 00       	mov    $0x2000,%edx
  40284c:	48 8d b4 24 20 60 00 	lea    0x6020(%rsp),%rsi
  402853:	00 
  402854:	48 8d bc 24 20 80 00 	lea    0x8020(%rsp),%rdi
  40285b:	00 
  40285c:	e8 ca f9 ff ff       	callq  40222b <rio_readlineb>
  402861:	48 85 c0             	test   %rax,%rax
  402864:	0f 8e 52 ff ff ff    	jle    4027bc <submitr+0x512>
  40286a:	0f b6 84 24 20 60 00 	movzbl 0x6020(%rsp),%eax
  402871:	00 
  402872:	83 e8 0d             	sub    $0xd,%eax
  402875:	75 cc                	jne    402843 <submitr+0x599>
  402877:	0f b6 84 24 21 60 00 	movzbl 0x6021(%rsp),%eax
  40287e:	00 
  40287f:	83 e8 0a             	sub    $0xa,%eax
  402882:	75 bf                	jne    402843 <submitr+0x599>
  402884:	0f b6 84 24 22 60 00 	movzbl 0x6022(%rsp),%eax
  40288b:	00 
  40288c:	eb b5                	jmp    402843 <submitr+0x599>
  40288e:	ba 00 20 00 00       	mov    $0x2000,%edx
  402893:	48 8d b4 24 20 60 00 	lea    0x6020(%rsp),%rsi
  40289a:	00 
  40289b:	48 8d bc 24 20 80 00 	lea    0x8020(%rsp),%rdi
  4028a2:	00 
  4028a3:	e8 83 f9 ff ff       	callq  40222b <rio_readlineb>
  4028a8:	48 85 c0             	test   %rax,%rax
  4028ab:	0f 8e 97 00 00 00    	jle    402948 <submitr+0x69e>
  4028b1:	8b 94 24 1c 20 00 00 	mov    0x201c(%rsp),%edx
  4028b8:	81 fa c8 00 00 00    	cmp    $0xc8,%edx
  4028be:	0f 85 08 01 00 00    	jne    4029cc <submitr+0x722>
  4028c4:	48 8d b4 24 20 60 00 	lea    0x6020(%rsp),%rsi
  4028cb:	00 
  4028cc:	48 89 ef             	mov    %rbp,%rdi
  4028cf:	e8 4c e4 ff ff       	callq  400d20 <strcpy@plt>
  4028d4:	89 df                	mov    %ebx,%edi
  4028d6:	e8 b5 e4 ff ff       	callq  400d90 <close@plt>
  4028db:	0f b6 45 00          	movzbl 0x0(%rbp),%eax
  4028df:	83 e8 4f             	sub    $0x4f,%eax
  4028e2:	89 c2                	mov    %eax,%edx
  4028e4:	75 16                	jne    4028fc <submitr+0x652>
  4028e6:	0f b6 45 01          	movzbl 0x1(%rbp),%eax
  4028ea:	83 e8 4b             	sub    $0x4b,%eax
  4028ed:	75 0d                	jne    4028fc <submitr+0x652>
  4028ef:	0f b6 45 02          	movzbl 0x2(%rbp),%eax
  4028f3:	83 e8 0a             	sub    $0xa,%eax
  4028f6:	75 04                	jne    4028fc <submitr+0x652>
  4028f8:	0f b6 45 03          	movzbl 0x3(%rbp),%eax
  4028fc:	85 c0                	test   %eax,%eax
  4028fe:	0f 84 2d ff ff ff    	je     402831 <submitr+0x587>
  402904:	bf d0 35 40 00       	mov    $0x4035d0,%edi
  402909:	b9 05 00 00 00       	mov    $0x5,%ecx
  40290e:	48 89 ee             	mov    %rbp,%rsi
  402911:	f3 a6                	repz cmpsb %es:(%rdi),%ds:(%rsi)
  402913:	0f 97 c0             	seta   %al
  402916:	0f 92 c1             	setb   %cl
  402919:	29 c8                	sub    %ecx,%eax
  40291b:	0f be c0             	movsbl %al,%eax
  40291e:	85 c0                	test   %eax,%eax
  402920:	0f 84 0b ff ff ff    	je     402831 <submitr+0x587>
  402926:	85 d2                	test   %edx,%edx
  402928:	75 0f                	jne    402939 <submitr+0x68f>
  40292a:	0f b6 45 01          	movzbl 0x1(%rbp),%eax
  40292e:	83 e8 4b             	sub    $0x4b,%eax
  402931:	89 c2                	mov    %eax,%edx
  402933:	75 04                	jne    402939 <submitr+0x68f>
  402935:	0f b6 55 02          	movzbl 0x2(%rbp),%edx
  402939:	85 d2                	test   %edx,%edx
  40293b:	0f 85 b3 00 00 00    	jne    4029f4 <submitr+0x74a>
  402941:	89 d0                	mov    %edx,%eax
  402943:	e9 e9 fe ff ff       	jmpq   402831 <submitr+0x587>
  402948:	48 b8 45 72 72 6f 72 	movabs $0x43203a726f727245,%rax
  40294f:	3a 20 43 
  402952:	48 ba 6c 69 65 6e 74 	movabs $0x6e7520746e65696c,%rdx
  402959:	20 75 6e 
  40295c:	48 89 45 00          	mov    %rax,0x0(%rbp)
  402960:	48 89 55 08          	mov    %rdx,0x8(%rbp)
  402964:	48 b8 61 62 6c 65 20 	movabs $0x206f7420656c6261,%rax
  40296b:	74 6f 20 
  40296e:	48 ba 72 65 61 64 20 	movabs $0x6174732064616572,%rdx
  402975:	73 74 61 
  402978:	48 89 45 10          	mov    %rax,0x10(%rbp)
  40297c:	48 89 55 18          	mov    %rdx,0x18(%rbp)
  402980:	48 b8 74 75 73 20 6d 	movabs $0x7373656d20737574,%rax
  402987:	65 73 73 
  40298a:	48 ba 61 67 65 20 66 	movabs $0x6d6f726620656761,%rdx
  402991:	72 6f 6d 
  402994:	48 89 45 20          	mov    %rax,0x20(%rbp)
  402998:	48 89 55 28          	mov    %rdx,0x28(%rbp)
  40299c:	48 b8 20 72 65 73 75 	movabs $0x20746c7573657220,%rax
  4029a3:	6c 74 20 
  4029a6:	48 89 45 30          	mov    %rax,0x30(%rbp)
  4029aa:	c7 45 38 73 65 72 76 	movl   $0x76726573,0x38(%rbp)
  4029b1:	66 c7 45 3c 65 72    	movw   $0x7265,0x3c(%rbp)
  4029b7:	c6 45 3e 00          	movb   $0x0,0x3e(%rbp)
  4029bb:	89 df                	mov    %ebx,%edi
  4029bd:	e8 ce e3 ff ff       	callq  400d90 <close@plt>
  4029c2:	b8 ff ff ff ff       	mov    $0xffffffff,%eax
  4029c7:	e9 65 fe ff ff       	jmpq   402831 <submitr+0x587>
  4029cc:	48 8d 4c 24 10       	lea    0x10(%rsp),%rcx
  4029d1:	be 88 35 40 00       	mov    $0x403588,%esi
  4029d6:	48 89 ef             	mov    %rbp,%rdi
  4029d9:	b8 00 00 00 00       	mov    $0x0,%eax
  4029de:	e8 dd e4 ff ff       	callq  400ec0 <sprintf@plt>
  4029e3:	89 df                	mov    %ebx,%edi
  4029e5:	e8 a6 e3 ff ff       	callq  400d90 <close@plt>
  4029ea:	b8 ff ff ff ff       	mov    $0xffffffff,%eax
  4029ef:	e9 3d fe ff ff       	jmpq   402831 <submitr+0x587>
  4029f4:	b8 ff ff ff ff       	mov    $0xffffffff,%eax
  4029f9:	e9 33 fe ff ff       	jmpq   402831 <submitr+0x587>

00000000004029fe <init_timeout>:
  4029fe:	85 ff                	test   %edi,%edi
  402a00:	74 26                	je     402a28 <init_timeout+0x2a>
  402a02:	53                   	push   %rbx
  402a03:	89 fb                	mov    %edi,%ebx
  402a05:	85 ff                	test   %edi,%edi
  402a07:	78 18                	js     402a21 <init_timeout+0x23>
  402a09:	be 3e 20 40 00       	mov    $0x40203e,%esi
  402a0e:	bf 0e 00 00 00       	mov    $0xe,%edi
  402a13:	e8 a8 e3 ff ff       	callq  400dc0 <signal@plt>
  402a18:	89 df                	mov    %ebx,%edi
  402a1a:	e8 61 e3 ff ff       	callq  400d80 <alarm@plt>
  402a1f:	5b                   	pop    %rbx
  402a20:	c3                   	retq   
  402a21:	bb 00 00 00 00       	mov    $0x0,%ebx
  402a26:	eb e1                	jmp    402a09 <init_timeout+0xb>
  402a28:	f3 c3                	repz retq 

0000000000402a2a <init_driver>:
  402a2a:	55                   	push   %rbp
  402a2b:	53                   	push   %rbx
  402a2c:	48 83 ec 18          	sub    $0x18,%rsp
  402a30:	48 89 fd             	mov    %rdi,%rbp
  402a33:	be 01 00 00 00       	mov    $0x1,%esi
  402a38:	bf 0d 00 00 00       	mov    $0xd,%edi
  402a3d:	e8 7e e3 ff ff       	callq  400dc0 <signal@plt>
  402a42:	be 01 00 00 00       	mov    $0x1,%esi
  402a47:	bf 1d 00 00 00       	mov    $0x1d,%edi
  402a4c:	e8 6f e3 ff ff       	callq  400dc0 <signal@plt>
  402a51:	be 01 00 00 00       	mov    $0x1,%esi
  402a56:	bf 1d 00 00 00       	mov    $0x1d,%edi
  402a5b:	e8 60 e3 ff ff       	callq  400dc0 <signal@plt>
  402a60:	ba 00 00 00 00       	mov    $0x0,%edx
  402a65:	be 01 00 00 00       	mov    $0x1,%esi
  402a6a:	bf 02 00 00 00       	mov    $0x2,%edi
  402a6f:	e8 7c e4 ff ff       	callq  400ef0 <socket@plt>
  402a74:	85 c0                	test   %eax,%eax
  402a76:	78 7c                	js     402af4 <init_driver+0xca>
  402a78:	89 c3                	mov    %eax,%ebx
  402a7a:	bf c9 30 40 00       	mov    $0x4030c9,%edi
  402a7f:	e8 4c e3 ff ff       	callq  400dd0 <gethostbyname@plt>
  402a84:	48 85 c0             	test   %rax,%rax
  402a87:	0f 84 b3 00 00 00    	je     402b40 <init_driver+0x116>
  402a8d:	48 c7 04 24 00 00 00 	movq   $0x0,(%rsp)
  402a94:	00 
  402a95:	48 c7 44 24 08 00 00 	movq   $0x0,0x8(%rsp)
  402a9c:	00 00 
  402a9e:	66 c7 04 24 02 00    	movw   $0x2,(%rsp)
  402aa4:	48 8b 48 18          	mov    0x18(%rax),%rcx
  402aa8:	48 63 50 14          	movslq 0x14(%rax),%rdx
  402aac:	48 8d 74 24 04       	lea    0x4(%rsp),%rsi
  402ab1:	48 8b 39             	mov    (%rcx),%rdi
  402ab4:	e8 b7 e3 ff ff       	callq  400e70 <bcopy@plt>
  402ab9:	66 c7 44 24 02 47 26 	movw   $0x2647,0x2(%rsp)
  402ac0:	ba 10 00 00 00       	mov    $0x10,%edx
  402ac5:	48 89 e6             	mov    %rsp,%rsi
  402ac8:	89 df                	mov    %ebx,%edi
  402aca:	e8 11 e4 ff ff       	callq  400ee0 <connect@plt>
  402acf:	85 c0                	test   %eax,%eax
  402ad1:	0f 88 d1 00 00 00    	js     402ba8 <init_driver+0x17e>
  402ad7:	89 df                	mov    %ebx,%edi
  402ad9:	e8 b2 e2 ff ff       	callq  400d90 <close@plt>
  402ade:	66 c7 45 00 4f 4b    	movw   $0x4b4f,0x0(%rbp)
  402ae4:	c6 45 02 00          	movb   $0x0,0x2(%rbp)
  402ae8:	b8 00 00 00 00       	mov    $0x0,%eax
  402aed:	48 83 c4 18          	add    $0x18,%rsp
  402af1:	5b                   	pop    %rbx
  402af2:	5d                   	pop    %rbp
  402af3:	c3                   	retq   
  402af4:	48 b8 45 72 72 6f 72 	movabs $0x43203a726f727245,%rax
  402afb:	3a 20 43 
  402afe:	48 ba 6c 69 65 6e 74 	movabs $0x6e7520746e65696c,%rdx
  402b05:	20 75 6e 
  402b08:	48 89 45 00          	mov    %rax,0x0(%rbp)
  402b0c:	48 89 55 08          	mov    %rdx,0x8(%rbp)
  402b10:	48 b8 61 62 6c 65 20 	movabs $0x206f7420656c6261,%rax
  402b17:	74 6f 20 
  402b1a:	48 ba 63 72 65 61 74 	movabs $0x7320657461657263,%rdx
  402b21:	65 20 73 
  402b24:	48 89 45 10          	mov    %rax,0x10(%rbp)
  402b28:	48 89 55 18          	mov    %rdx,0x18(%rbp)
  402b2c:	c7 45 20 6f 63 6b 65 	movl   $0x656b636f,0x20(%rbp)
  402b33:	66 c7 45 24 74 00    	movw   $0x74,0x24(%rbp)
  402b39:	b8 ff ff ff ff       	mov    $0xffffffff,%eax
  402b3e:	eb ad                	jmp    402aed <init_driver+0xc3>
  402b40:	48 b8 45 72 72 6f 72 	movabs $0x44203a726f727245,%rax
  402b47:	3a 20 44 
  402b4a:	48 ba 4e 53 20 69 73 	movabs $0x6e7520736920534e,%rdx
  402b51:	20 75 6e 
  402b54:	48 89 45 00          	mov    %rax,0x0(%rbp)
  402b58:	48 89 55 08          	mov    %rdx,0x8(%rbp)
  402b5c:	48 b8 61 62 6c 65 20 	movabs $0x206f7420656c6261,%rax
  402b63:	74 6f 20 
  402b66:	48 ba 72 65 73 6f 6c 	movabs $0x2065766c6f736572,%rdx
  402b6d:	76 65 20 
  402b70:	48 89 45 10          	mov    %rax,0x10(%rbp)
  402b74:	48 89 55 18          	mov    %rdx,0x18(%rbp)
  402b78:	48 b8 73 65 72 76 65 	movabs $0x6120726576726573,%rax
  402b7f:	72 20 61 
  402b82:	48 89 45 20          	mov    %rax,0x20(%rbp)
  402b86:	c7 45 28 64 64 72 65 	movl   $0x65726464,0x28(%rbp)
  402b8d:	66 c7 45 2c 73 73    	movw   $0x7373,0x2c(%rbp)
  402b93:	c6 45 2e 00          	movb   $0x0,0x2e(%rbp)
  402b97:	89 df                	mov    %ebx,%edi
  402b99:	e8 f2 e1 ff ff       	callq  400d90 <close@plt>
  402b9e:	b8 ff ff ff ff       	mov    $0xffffffff,%eax
  402ba3:	e9 45 ff ff ff       	jmpq   402aed <init_driver+0xc3>
  402ba8:	48 b8 45 72 72 6f 72 	movabs $0x55203a726f727245,%rax
  402baf:	3a 20 55 
  402bb2:	48 ba 6e 61 62 6c 65 	movabs $0x6f7420656c62616e,%rdx
  402bb9:	20 74 6f 
  402bbc:	48 89 45 00          	mov    %rax,0x0(%rbp)
  402bc0:	48 89 55 08          	mov    %rdx,0x8(%rbp)
  402bc4:	48 b8 20 63 6f 6e 6e 	movabs $0x7463656e6e6f6320,%rax
  402bcb:	65 63 74 
  402bce:	48 ba 20 74 6f 20 73 	movabs $0x76726573206f7420,%rdx
  402bd5:	65 72 76 
  402bd8:	48 89 45 10          	mov    %rax,0x10(%rbp)
  402bdc:	48 89 55 18          	mov    %rdx,0x18(%rbp)
  402be0:	66 c7 45 20 65 72    	movw   $0x7265,0x20(%rbp)
  402be6:	c6 45 22 00          	movb   $0x0,0x22(%rbp)
  402bea:	89 df                	mov    %ebx,%edi
  402bec:	e8 9f e1 ff ff       	callq  400d90 <close@plt>
  402bf1:	b8 ff ff ff ff       	mov    $0xffffffff,%eax
  402bf6:	e9 f2 fe ff ff       	jmpq   402aed <init_driver+0xc3>

0000000000402bfb <driver_post>:
  402bfb:	53                   	push   %rbx
  402bfc:	4c 89 cb             	mov    %r9,%rbx
  402bff:	45 85 c0             	test   %r8d,%r8d
  402c02:	75 18                	jne    402c1c <driver_post+0x21>
  402c04:	48 85 ff             	test   %rdi,%rdi
  402c07:	74 05                	je     402c0e <driver_post+0x13>
  402c09:	80 3f 00             	cmpb   $0x0,(%rdi)
  402c0c:	75 30                	jne    402c3e <driver_post+0x43>
  402c0e:	66 c7 03 4f 4b       	movw   $0x4b4f,(%rbx)
  402c13:	c6 43 02 00          	movb   $0x0,0x2(%rbx)
  402c17:	44 89 c0             	mov    %r8d,%eax
  402c1a:	5b                   	pop    %rbx
  402c1b:	c3                   	retq   
  402c1c:	48 89 ce             	mov    %rcx,%rsi
  402c1f:	bf d5 35 40 00       	mov    $0x4035d5,%edi
  402c24:	b8 00 00 00 00       	mov    $0x0,%eax
  402c29:	e8 32 e1 ff ff       	callq  400d60 <printf@plt>
  402c2e:	66 c7 03 4f 4b       	movw   $0x4b4f,(%rbx)
  402c33:	c6 43 02 00          	movb   $0x0,0x2(%rbx)
  402c37:	b8 00 00 00 00       	mov    $0x0,%eax
  402c3c:	eb dc                	jmp    402c1a <driver_post+0x1f>
  402c3e:	48 83 ec 08          	sub    $0x8,%rsp
  402c42:	41 51                	push   %r9
  402c44:	49 89 c9             	mov    %rcx,%r9
  402c47:	49 89 d0             	mov    %rdx,%r8
  402c4a:	48 89 f9             	mov    %rdi,%rcx
  402c4d:	48 89 f2             	mov    %rsi,%rdx
  402c50:	be 26 47 00 00       	mov    $0x4726,%esi
  402c55:	bf c9 30 40 00       	mov    $0x4030c9,%edi
  402c5a:	e8 4b f6 ff ff       	callq  4022aa <submitr>
  402c5f:	48 83 c4 10          	add    $0x10,%rsp
  402c63:	eb b5                	jmp    402c1a <driver_post+0x1f>

0000000000402c65 <check>:
  402c65:	89 f8                	mov    %edi,%eax
  402c67:	c1 e8 1c             	shr    $0x1c,%eax
  402c6a:	85 c0                	test   %eax,%eax
  402c6c:	74 1d                	je     402c8b <check+0x26>
  402c6e:	b9 00 00 00 00       	mov    $0x0,%ecx
  402c73:	83 f9 1f             	cmp    $0x1f,%ecx
  402c76:	7f 0d                	jg     402c85 <check+0x20>
  402c78:	89 f8                	mov    %edi,%eax
  402c7a:	d3 e8                	shr    %cl,%eax
  402c7c:	3c 0a                	cmp    $0xa,%al
  402c7e:	74 11                	je     402c91 <check+0x2c>
  402c80:	83 c1 08             	add    $0x8,%ecx
  402c83:	eb ee                	jmp    402c73 <check+0xe>
  402c85:	b8 01 00 00 00       	mov    $0x1,%eax
  402c8a:	c3                   	retq   
  402c8b:	b8 00 00 00 00       	mov    $0x0,%eax
  402c90:	c3                   	retq   
  402c91:	b8 00 00 00 00       	mov    $0x0,%eax
  402c96:	c3                   	retq   

0000000000402c97 <gencookie>:
  402c97:	53                   	push   %rbx
  402c98:	83 c7 01             	add    $0x1,%edi
  402c9b:	e8 60 e0 ff ff       	callq  400d00 <srandom@plt>
  402ca0:	e8 8b e1 ff ff       	callq  400e30 <random@plt>
  402ca5:	89 c3                	mov    %eax,%ebx
  402ca7:	89 c7                	mov    %eax,%edi
  402ca9:	e8 b7 ff ff ff       	callq  402c65 <check>
  402cae:	85 c0                	test   %eax,%eax
  402cb0:	74 ee                	je     402ca0 <gencookie+0x9>
  402cb2:	89 d8                	mov    %ebx,%eax
  402cb4:	5b                   	pop    %rbx
  402cb5:	c3                   	retq   
  402cb6:	66 2e 0f 1f 84 00 00 	nopw   %cs:0x0(%rax,%rax,1)
  402cbd:	00 00 00 

0000000000402cc0 <__libc_csu_init>:
  402cc0:	41 57                	push   %r15
  402cc2:	41 89 ff             	mov    %edi,%r15d
  402cc5:	41 56                	push   %r14
  402cc7:	49 89 f6             	mov    %rsi,%r14
  402cca:	41 55                	push   %r13
  402ccc:	49 89 d5             	mov    %rdx,%r13
  402ccf:	41 54                	push   %r12
  402cd1:	4c 8d 25 40 21 20 00 	lea    0x202140(%rip),%r12        # 604e18 <__frame_dummy_init_array_entry>
  402cd8:	55                   	push   %rbp
  402cd9:	48 8d 2d 40 21 20 00 	lea    0x202140(%rip),%rbp        # 604e20 <__init_array_end>
  402ce0:	53                   	push   %rbx
  402ce1:	4c 29 e5             	sub    %r12,%rbp
  402ce4:	31 db                	xor    %ebx,%ebx
  402ce6:	48 c1 fd 03          	sar    $0x3,%rbp
  402cea:	48 83 ec 08          	sub    $0x8,%rsp
  402cee:	e8 bd df ff ff       	callq  400cb0 <_init>
  402cf3:	48 85 ed             	test   %rbp,%rbp
  402cf6:	74 1e                	je     402d16 <__libc_csu_init+0x56>
  402cf8:	0f 1f 84 00 00 00 00 	nopl   0x0(%rax,%rax,1)
  402cff:	00 
  402d00:	4c 89 ea             	mov    %r13,%rdx
  402d03:	4c 89 f6             	mov    %r14,%rsi
  402d06:	44 89 ff             	mov    %r15d,%edi
  402d09:	41 ff 14 dc          	callq  *(%r12,%rbx,8)
  402d0d:	48 83 c3 01          	add    $0x1,%rbx
  402d11:	48 39 eb             	cmp    %rbp,%rbx
  402d14:	75 ea                	jne    402d00 <__libc_csu_init+0x40>
  402d16:	48 83 c4 08          	add    $0x8,%rsp
  402d1a:	5b                   	pop    %rbx
  402d1b:	5d                   	pop    %rbp
  402d1c:	41 5c                	pop    %r12
  402d1e:	41 5d                	pop    %r13
  402d20:	41 5e                	pop    %r14
  402d22:	41 5f                	pop    %r15
  402d24:	c3                   	retq   
  402d25:	90                   	nop
  402d26:	66 2e 0f 1f 84 00 00 	nopw   %cs:0x0(%rax,%rax,1)
  402d2d:	00 00 00 

0000000000402d30 <__libc_csu_fini>:
  402d30:	f3 c3                	repz retq 

Disassembly of section .fini:

0000000000402d34 <_fini>:
  402d34:	48 83 ec 08          	sub    $0x8,%rsp
  402d38:	48 83 c4 08          	add    $0x8,%rsp
  402d3c:	c3                   	retq   
